ROM is 32768 bytes, 4 8k-pages, mapper 68
;Mappings:
; Page 4: 0
; Page 5: 2000
; Page 6: 4000
; Page 7: 6000
;Vectors:
; NMI:   C08A
; Reset: C000
; IRQ:   C0ED
; Discovered a data table at 5460,5465 (stepping 1, extent 5)
; Discovered a data table at 5460,5465 (stepping 1, extent 5)
; Discovered a data table at 637A,6381 (stepping 1, extent 7)
; Discovered a data table at 637A,6381 (stepping 1, extent 7)
; Discovered a data table at 65BB,65C0 (stepping 1, extent 5)
; Indirect jump at romptr=$43A8, JumpPointer=$0025
; UNRESOLVED indirect jump at $43A8!
; Possibly discovered a data table at 43AB ($C3AB) (page [8:0][A:1][C:2][E:3])
; Possibly discovered a data table at 7701 ($F701) (page [8:0][A:1][C:2][E:3])
	$8000               .byte $A9,$00,$8D,$00,$20,$8D,$01,$20,$AD,$02,$20,$10,$FB,$78,$D8,$A2
	$8010               .byte $FF,$9A,$A2,$12,$A9,$00,$95,$00,$E8,$D0,$FB,$A2,$02,$BD,$FA,$07
	$8020               .byte $DD,$78,$C0,$D0,$05,$CA,$10,$F5,$30,$43,$A2,$00,$8A,$95,$00,$9D
	$8030               .byte $00,$07,$E8,$D0,$F8,$A9,$32,$85,$15,$A9,$32,$20,$D4,$D6,$A9,$00
	$8040               .byte $85,$46,$20,$6F,$C5,$C6,$15,$D0,$F0,$A2,$0E,$BD,$7B,$C0,$9D,$29
	$8050               .byte $06,$CA,$10,$F7,$A2,$04,$A9,$00,$95,$03,$CA,$10,$F9,$A9,$00,$20
	$8060               .byte $D4,$D6,$A2,$02,$BD,$78,$C0,$9D,$FA,$07,$CA,$10,$F7,$A9,$1E,$85
	$8070               .byte $01,$A9,$90,$85,$00,$4C,$CA,$F1,$48,$41,$4C,$00,$00,$00,$01,$00
	$8080               .byte $00,$00,$00,$01,$00,$00,$00,$05,$02,$00,$48,$8A,$48,$98,$48,$A9
	$8090               .byte $00,$8D,$03,$20,$A9,$02,$8D,$14,$40,$A5,$52,$C5,$53,$F0,$03,$20
	$80A0               .byte $72,$C1,$20,$03,$D6,$20,$8E,$D7,$E6,$19,$A9,$20,$8D,$06,$20,$A9
	$80B0               .byte $00,$8D,$06,$20,$A9,$00,$8D,$05,$20,$8D,$05,$20,$20,$F7,$FF,$A9
	$80C0               .byte $01,$85,$02,$A5,$16,$F0,$20,$AD,$02,$20,$30,$FB,$A2,$04,$A0,$C6
	$80D0               .byte $88,$D0,$FD,$CA,$D0,$FA,$A5,$18,$05,$00,$8D,$00,$20,$A5,$17,$8D
	$80E0               .byte $05,$20,$A9,$00,$8D,$05,$20,$68,$A8,$68,$AA,$68,$40,$4C,$ED,$C0
	$80F0               .byte $A5,$00,$29,$7F,$8D,$00,$20,$85,$00,$60,$A5,$00,$09,$80,$D0,$F4
	$8100               .byte $A9,$00,$48,$20,$5B,$F4,$68,$8D,$01,$20,$60,$A5,$01,$D0,$F3,$20
	$8110               .byte $4A,$C1,$A0,$00,$B9,$57,$00,$9D,$00,$03,$E8,$C8,$C4,$56,$D0,$F4
	$8120               .byte $86,$53,$60,$A9,$57,$A0,$00,$85,$21,$84,$22,$8A,$48,$A0,$02,$B1
	$8130               .byte $21,$18,$69,$03,$85,$12,$A6,$53,$A0,$00,$B1,$21,$9D,$00,$03,$E8
	$8140               .byte $C8,$C4,$12,$D0,$F5,$86,$53,$68,$AA,$60,$A6,$53,$A9,$00,$85,$12
	$8150               .byte $A5,$55,$0A,$0A,$0A,$0A,$26,$12,$0A,$26,$12,$05,$54,$48,$A5,$12
	$8160               .byte $09,$20,$9D,$00,$03,$E8,$68,$9D,$00,$03,$E8,$A5,$56,$9D,$00,$03
	$8170               .byte $E8,$60,$98,$48,$8A,$48,$20,$7E,$C1,$68,$AA,$68,$A8,$60,$A6,$52
	$8180               .byte $BD,$00,$03,$E8,$85,$50,$8D,$06,$20,$BD,$00,$03,$E8,$8D,$06,$20
	$8190               .byte $BC,$00,$03,$E8,$BD,$00,$03,$E8,$8D,$07,$20,$88,$D0,$F6,$A5,$50
	$81A0               .byte $C9,$3F,$D0,$10,$A9,$3F,$8D,$06,$20,$A9,$00,$8D,$06,$20,$8D,$06
	$81B0               .byte $20,$8D,$06,$20,$86,$52,$E4,$53,$D0,$C4,$60,$A9,$20,$85,$F2,$20
	$81C0               .byte $1D,$C5,$20,$2F,$C5,$A9,$FF,$85,$CD,$A9,$A3,$85,$23,$A9,$C4,$85
	$81D0               .byte $24,$A9,$80,$85,$91,$8D,$88,$04,$A9,$70,$85,$9A,$20,$40,$CD,$A9
	$81E0               .byte $00,$85,$41,$85,$C9,$85,$CA,$85,$BA,$85,$C5,$85,$C8,$20,$9B,$F4
	$81F0               .byte $A2,$13,$A9,$FF,$9D,$30,$05,$A9,$F0,$9D,$A4,$04,$CA,$10,$F3,$20
	$8200               .byte $66,$F4,$20,$87,$E6,$A5,$C5,$D0,$03,$20,$EF,$C6,$A5,$19,$4A,$B0
	$8210               .byte $03,$4C,$C6,$C2,$A5,$C5,$F0,$05,$C6,$C5,$4C,$C6,$C2,$A5,$17,$D0
	$8220               .byte $06,$A5,$18,$49,$01,$85,$18,$C6,$17,$AD,$88,$04,$F0,$15,$EE,$88
	$8230               .byte $04,$AD,$88,$04,$C9,$F0,$90,$05,$A9,$00,$8D,$88,$04,$A5,$BD,$F0
	$8240               .byte $02,$E6,$91,$A2,$07,$BD,$5D,$05,$30,$19,$FE,$67,$05,$BD,$67,$05
	$8250               .byte $C9,$F8,$D0,$0F,$A9,$FF,$9D,$5D,$05,$A9,$F0,$9D,$7B,$05,$A9,$00
	$8260               .byte $8D,$CE,$05,$CA,$10,$DF,$A2,$13,$BD,$30,$05,$30,$12,$FE,$90,$04
	$8270               .byte $BD,$90,$04,$C9,$F8,$90,$08,$A9,$F0,$9D,$A4,$04,$9D,$30,$05,$CA
	$8280               .byte $10,$E6,$A5,$17,$29,$07,$D0,$3E,$A6,$88,$CA,$30,$39,$A9,$00,$85
	$8290               .byte $3E,$A9,$01,$20,$D4,$D6,$E6,$C9,$A5,$C9,$29,$1F,$D0,$14,$E6,$CA
	$82A0               .byte $A5,$CA,$C9,$0A,$D0,$0C,$A9,$02,$85,$CA,$A4,$BA,$C8,$98,$29,$03
	$82B0               .byte $85,$BA,$A6,$CA,$BD,$B5,$C3,$0A,$A8,$B9,$AB,$C3,$85,$25,$B9,$AC
	$82C0               .byte $C3,$85,$26,$20,$A8,$C3,$A2,$07,$BD,$5D,$05,$30,$18,$20,$C4,$CE
	$82D0               .byte $AD,$CD,$05,$F0,$10,$CE,$CD,$05,$EE,$CE,$05,$8A,$48,$AD,$59,$05
	$82E0               .byte $20,$D4,$D6,$68,$AA,$20,$25,$CE,$CA,$10,$DD,$A2,$13,$BD,$30,$05
	$82F0               .byte $30,$1B,$A5,$C5,$D0,$14,$20,$AC,$C9,$BD,$A4,$04,$C9,$02,$B0,$03
	$8300               .byte $20,$45,$CA,$C9,$D8,$90,$03,$20,$45,$CA,$20,$12,$CB,$A5,$19,$29
	$8310               .byte $07,$4A,$A8,$B9,$D3,$C9,$48,$A5,$19,$4A,$8A,$90,$06,$85,$12,$A9
	$8320               .byte $13,$E5,$12,$0A,$0A,$A8,$68,$99,$B1,$02,$BD,$A4,$04,$99,$B0,$02
	$8330               .byte $BD,$90,$04,$99,$B3,$02,$A9,$00,$99,$B2,$02,$CA,$10,$AF,$AD,$CE
	$8340               .byte $05,$C9,$14,$90,$20,$E6,$47,$A9,$00,$20,$D4,$D6,$C6,$47,$A9,$10
	$8350               .byte $85,$F2,$E6,$C8,$20,$E3,$D3,$20,$1D,$C5,$C6,$C8,$A2,$64,$20,$54
	$8360               .byte $F4,$A9,$20,$85,$F2,$A2,$F0,$AD,$88,$04,$F0,$02,$A2,$88,$8E,$00
	$8370               .byte $02,$8E,$04,$02,$8D,$03,$02,$18,$69,$08,$8D,$07,$02,$A5,$19,$29
	$8380               .byte $03,$8D,$02,$02,$8D,$06,$02,$A2,$E3,$8E,$01,$02,$E8,$8E,$05,$02
	$8390               .byte $A5,$88,$30,$03,$4C,$FF,$C1,$20,$6F,$C5,$A9,$01,$85,$F0,$20,$5B
	$83A0               .byte $F4,$A9,$02,$85,$F2,$4C,$60,$F3,$6C,$25,$00,$BF,$C3,$ED,$C3,$34
	$83B0               .byte $C4,$55,$C4,$54,$C4,$00,$00,$02,$02,$02,$02,$02,$04,$03,$01,$A0
	$83C0               .byte $00,$B1,$23,$E6,$23,$D0,$02,$E6,$24,$AA,$F0,$20,$0A,$0A,$0A,$85
	$83D0               .byte $15,$A9,$00,$85,$14,$8A,$29,$C0,$C9,$80,$D0,$06,$20,$61,$C4,$4C
	$83E0               .byte $BF,$C3,$C9,$00,$D0,$06,$20,$7C,$C4,$4C,$BF,$C3,$60,$20,$A9,$F1
	$83F0               .byte $29,$7F,$C9,$04,$90,$0C,$C9,$18,$B0,$08,$0A,$0A,$0A,$85,$15,$20
	$8400               .byte $61,$C4,$20,$A9,$F1,$29,$3F,$C9,$02,$90,$24,$C9,$18,$B0,$20,$0A
	$8410               .byte $0A,$0A,$85,$15,$20,$A9,$F1,$29,$3F,$A6,$BA,$7D,$30,$C4,$85,$14
	$8420               .byte $20,$7C,$C4,$20,$A9,$F1,$4A,$90,$D9,$20,$45,$CA,$4C,$02,$C4,$60
	$8430               .byte $20,$30,$40,$60,$20,$A9,$F1,$29,$CF,$D0,$B2,$A4,$89,$C8,$D0,$AD
	$8440               .byte $A9,$E6,$85,$9B,$A5,$1B,$29,$7F,$69,$40,$85,$92,$A9,$80,$85,$89
	$8450               .byte $A9,$00,$85,$80,$60,$20,$02,$C4,$20,$A9,$F1,$29,$7F,$9D,$08,$05
	$8460               .byte $60,$A2,$07,$BD,$5D,$05,$30,$04,$CA,$10,$F8,$60,$A9,$01,$9D,$5D
	$8470               .byte $05,$A9,$00,$9D,$67,$05,$A5,$15,$9D,$7B,$05,$60,$A2,$13,$BD,$30
	$8480               .byte $05,$30,$04,$CA,$10,$F8,$60,$A9,$00,$9D,$30,$05,$9D,$90,$04,$9D
	$8490               .byte $F4,$04,$9D,$08,$05,$9D,$E0,$04,$A5,$14,$9D,$1C,$05,$A5,$15,$9D
	$84A0               .byte $A4,$04,$60,$00,$00,$09,$00,$08,$8C,$00,$07,$18,$00,$18,$00,$19
	$84B0               .byte $00,$1A,$00,$84,$94,$1A,$00,$1A,$00,$1A,$00,$0B,$12,$00,$0C,$13
	$84C0               .byte $00,$0D,$14,$00,$14,$00,$00,$90,$00,$07,$00,$07,$8C,$96,$00,$08
	$84D0               .byte $00,$09,$00,$00,$18,$00,$17,$00,$16,$00,$00,$00,$00,$00,$00,$8A
	$84E0               .byte $90,$00,$00,$00,$08,$00,$09,$98,$00,$0A,$00,$00,$00,$86,$8A,$15
	$84F0               .byte $00,$14,$00,$8E,$13,$00,$00,$03,$0D,$00,$0D,$0E,$00,$0C,$0D,$00
	$8500               .byte $0D,$19,$00,$86,$92,$00,$00,$98,$00,$00,$0A,$12,$00,$09,$13,$00
	$8510               .byte $08,$14,$00,$07,$15,$00,$07,$16,$00,$07,$00,$00,$00,$20,$D8,$D0
	$8520               .byte $0E,$59,$05,$AD,$59,$05,$0A,$0A,$6D,$59,$05,$8D,$59,$05,$60,$A9
	$8530               .byte $00,$85,$12,$A5,$12,$0A,$0A,$65,$12,$85,$1D,$A9,$07,$85,$1E,$A0
	$8540               .byte $04,$B1,$1D,$D9,$03,$00,$90,$11,$D0,$05,$88,$10,$F4,$30,$0A,$E6
	$8550               .byte $12,$A5,$12,$C9,$32,$D0,$DC,$C6,$12,$E6,$12,$A5,$12,$48,$85,$43
	$8560               .byte $A0,$0A,$20,$72,$D7,$85,$4A,$A5,$43,$85,$49,$68,$85,$12,$60,$20
	$8570               .byte $2F,$C5,$C6,$12,$A9,$31,$38,$E5,$12,$85,$13,$0A,$0A,$65,$13,$A8
	$8580               .byte $A5,$12,$0A,$0A,$65,$12,$85,$1D,$18,$69,$05,$85,$1F,$A9,$07,$85
	$8590               .byte $1E,$85,$20,$98,$F0,$0C,$88,$B1,$1D,$91,$1F,$88,$D0,$F9,$B1,$1D
	$85A0               .byte $91,$1F,$A0,$04,$B9,$03,$00,$91,$1D,$88,$10,$F8,$60,$01,$02,$03
	$85B0               .byte $03,$02,$01,$FF,$03,$04,$05,$06,$FF,$AD,$8D,$04,$4A,$4A,$4A,$AA
	$85C0               .byte $AD,$8A,$04,$D0,$06,$BD,$AD,$C5,$4C,$CE,$C5,$BD,$B1,$C5,$85,$87
	$85D0               .byte $A2,$08,$20,$9A,$E3,$AD,$8C,$04,$F0,$2F,$AE,$8B,$04,$AD,$8D,$04
	$85E0               .byte $C9,$20,$D0,$06,$A9,$FF,$95,$88,$30,$1C,$B0,$1D,$AD,$50,$04,$D0
	$85F0               .byte $07,$A5,$99,$18,$69,$04,$D0,$05,$A5,$99,$38,$E9,$04,$95,$91,$A5
	$8600               .byte $A2,$38,$E9,$0A,$95,$9A,$20,$9A,$E3,$60,$A9,$FF,$8D,$8B,$04,$A2
	$8610               .byte $07,$B5,$88,$30,$0C,$B5,$9A,$C9,$B4,$90,$06,$B5,$91,$C5,$99,$F0
	$8620               .byte $04,$CA,$10,$ED,$60,$8E,$8B,$04,$BD,$48,$04,$8D,$50,$04,$A9,$00
	$8630               .byte $8D,$8A,$04,$8D,$8D,$04,$8D,$8C,$04,$8D,$89,$04,$A9,$DC,$85,$A2
	$8640               .byte $60,$E6,$99,$A5,$99,$C9,$B1,$90,$04,$A9,$40,$85,$99,$60,$AD,$89
	$8650               .byte $04,$D0,$12,$C6,$A2,$A5,$A2,$C9,$C4,$B0,$0C,$E6,$A2,$EE,$8A,$04
	$8660               .byte $EE,$89,$04,$D0,$02,$E6,$A2,$EE,$8D,$04,$AD,$8D,$04,$C9,$18,$D0
	$8670               .byte $28,$AE,$8B,$04,$B5,$88,$30,$21,$B5,$9A,$18,$69,$10,$C5,$A2,$90
	$8680               .byte $18,$BC,$51,$04,$B9,$AE,$C6,$9D,$51,$04,$A9,$00,$95,$7F,$95,$88
	$8690               .byte $A5,$F2,$09,$40,$85,$F2,$EE,$8C,$04,$AD,$8A,$04,$F0,$0F,$AD,$8D
	$86A0               .byte $04,$C9,$28,$F0,$04,$C9,$30,$D0,$04,$A9,$CC,$85,$A2,$60,$08,$09
	$86B0               .byte $0A,$0B,$08,$09,$0A,$0B,$08,$09,$0A,$0B,$AD,$89,$04,$D0,$2F,$AE
	$86C0               .byte $8B,$04,$B5,$88,$30,$10,$B5,$9A,$C9,$B4,$90,$0A,$B5,$91,$C9,$40
	$86D0               .byte $90,$04,$C9,$B1,$90,$0E,$A9,$30,$38,$ED,$8D,$04,$8D,$8D,$04,$EE
	$86E0               .byte $89,$04,$D0,$0A,$B5,$91,$85,$99,$BD,$48,$04,$8D,$50,$04,$60,$A5
	$86F0               .byte $87,$10,$10,$20,$41,$C6,$20,$0A,$C6,$AD,$8B,$04,$10,$01,$60,$A9
	$8700               .byte $40,$85,$F3,$20,$BA,$C6,$20,$4E,$C6,$4C,$B9,$C5,$A2,$01,$A9,$FF
	$8710               .byte $9D,$30,$05,$9D,$44,$05,$CA,$10,$F5,$20,$70,$C7,$A6,$3C,$E0,$18
	$8720               .byte $90,$02,$A2,$18,$BD,$3E,$C7,$85,$BA,$BD,$57,$C7,$85,$B8,$A9,$F0
	$8730               .byte $8D,$E0,$02,$8D,$E4,$02,$8D,$E8,$02,$A9,$03,$4C,$4C,$C8,$00,$00
	$8740               .byte $00,$00,$00,$00,$00,$00,$00,$00,$01,$01,$01,$01,$01,$01,$02,$01
	$8750               .byte $01,$01,$01,$01,$01,$01,$01,$0F,$0F,$0C,$0C,$0C,$0C,$0A,$0A,$0A
	$8760               .byte $0A,$0C,$0C,$0A,$0A,$0A,$08,$0A,$0A,$08,$08,$08,$08,$08,$08,$05
	$8770               .byte $A5,$A3,$10,$03,$85,$A4,$60,$20,$A9,$F1,$C5,$A3,$90,$F6,$F0,$F4
	$8780               .byte $18,$E5,$A3,$4C,$7A,$C7,$A5,$19,$29,$7F,$F0,$01,$60,$C6,$B8,$D0
	$8790               .byte $FB,$A2,$00,$BD,$30,$05,$30,$0B,$E8,$BD,$30,$05,$30,$05,$A9,$01
	$87A0               .byte $85,$B8,$60,$A4,$A4,$84,$A5,$10,$01,$60,$A9,$80,$9D,$B8,$04,$9D
	$87B0               .byte $CC,$04,$A9,$00,$9D,$30,$05,$B9,$B2,$00,$9D,$90,$04,$B9,$B5,$00
	$87C0               .byte $9D,$A4,$04,$A4,$BA,$20,$A9,$F1,$29,$1F,$79,$95,$C8,$9D,$08,$05
	$87D0               .byte $B9,$A1,$C8,$9D,$1C,$05,$B9,$9B,$C8,$9D,$E0,$04,$B9,$A7,$C8,$9D
	$87E0               .byte $F4,$04,$20,$A9,$F1,$29,$03,$9D,$44,$05,$A8,$B9,$8D,$C8,$18,$7D
	$87F0               .byte $90,$04,$9D,$90,$04,$B9,$91,$C8,$18,$7D,$A4,$04,$9D,$A4,$04,$B9
	$8800               .byte $85
DataTableEntry_0801
	$8801               .byte $C8,$F0,$03,$20,$33,$CA,$B9,$89,$C8,$F0,$03,$20,$4B,$CA,$A5,$BA
	$8811               .byte $C9,$05,$B0,$02,$E6,$BA,$A9,$06,$38,$E5,$BA,$85,$B8,$A5,$F0,$09
	$8821               .byte $04,$85,$F0,$4C,$70,$C7,$A5,$B8,$C9,$01,$D0,$53,$AD,$30,$05,$30
	$8831               .byte $0A,$AD,$31,$05,$30,$05,$A9,$02,$85,$B8,$60,$A5,$19,$29,$7F,$C9
	$8841               .byte $40,$90,$3C,$D0,$06,$A5,$F1,$09,$08,$85,$F1,$29,$03,$AA,$BD,$81
	$8851               .byte $C8,$85,$5A,$A6,$A4,$30,$28,$A9,$23,$85,$57,$B5,$A6,$85,$58,$A9
	$8861               .byte $01,$85,$59,$20,$79,$C8,$B5,$A9,$85,$58,$20,$79,$C8,$B5,$AC,$85
	$8871               .byte $58,$20,$79,$C8,$B5,$AF,$85,$58,$A9,$57,$A0,$00,$4C,$27,$C1,$60
	$8881               .byte $55,$FF,$00,$FF,$00,$00,$FF,$FF,$FF,$00,$00,$FF,$10,$10,$F0,$F0
	$8891               .byte $DE,$22,$22,$DE,$60,$70,$80,$90,$A0,$B0,$00,$00,$00,$00,$00,$00
	$88A1               .byte $C0,$F0,$20,$50,$80,$B0,$00,$00,$01,$01,$01,$01,$A2,$01,$BD,$30
	$88B1               .byte $05,$10,$03,$4C,$A5,$C9,$BD,$44,$05,$30,$7B,$A8,$8A,$48,$A6,$A5
	$88C1               .byte $B5,$B2,$79,$DB,$C9,$8D,$E3,$02,$8D,$E7,$02,$8D,$EB,$02,$B5,$B5
	$88D1               .byte $79,$EB,$C9,$8D,$E0,$02,$79,$FB,$C9,$8D,$E4,$02,$79,$FB,$C9,$8D
	$88E1               .byte $E8,$02,$98,$29,$03,$AA,$98,$4A,$4A,$A8,$A5,$19,$4A,$4A,$B0,$04
	$88F1               .byte $98,$69,$05,$A8,$B9,$0B,$CA,$8D,$E1,$02,$B9,$15,$CA,$8D,$E5,$02
	$8901               .byte $B9,$1F,$CA,$8D,$E9,$02,$BD,$29,$CA,$8D,$E2,$02,$8D,$E6,$02,$8D
	$8911               .byte $EA,$02,$68,$AA,$A5,$19,$29,$07,$D0,$12,$BD,$44,$05,$18,$69,$04
	$8921               .byte $9D,$44,$05,$C9,$14,$90,$05,$A9,$FF,$9D,$44,$05,$BD,$44,$05,$C9
	$8931               .byte $10,$B0,$03,$4C,$A5,$C9,$20,$AC,$C9,$BD,$90,$04,$C9,$02,$B0,$03
	$8941               .byte $20,$2D,$CA,$BD,$90,$04,$C9,$F7,$90,$03,$20,$2D,$CA,$BD,$A4,$04
	$8951               .byte $C9,$02,$B0,$03,$20,$45,$CA,$BD,$A4,$04,$C9,$E0,$90,$0D,$A9,$FF
	$8961               .byte $9D,$30,$05,$A9,$F0,$9D,$A4,$04,$4C,$A5,$C9,$20,$5D,$CA,$20,$12
	$8971               .byte $CB,$BC,$30,$05,$C8,$98,$29,$07,$9D,$30,$05,$BC,$30,$05,$B9,$D3
	$8981               .byte $C9,$85,$12,$8A,$0A,$0A,$18,$A8,$BD,$A4,$04,$C9,$D0,$99,$00,$02
	$8991               .byte $BD,$90,$04,$99,$03,$02,$A5,$12,$99,$01,$02,$A9,$00,$90,$02,$A9
	$89A1               .byte $20,$99,$02,$02,$CA,$30,$03,$4C,$AF,$C8,$60,$BD,$08,$05,$18,$7D
	$89B1               .byte $B8,$04,$9D,$B8,$04,$BD,$E0,$04,$7D,$90,$04,$9D,$90,$04,$BD,$1C
	$89C1               .byte $05,$18,$7D,$CC,$04,$9D,$CC,$04,$BD,$F4,$04,$7D,$A4,$04,$9D,$A4
	$89D1               .byte $04,$60,$9D,$9E,$9F,$9E,$9D,$A0,$A1,$A0,$08,$08,$F0,$F0,$08,$08
	$89E1               .byte $F0,$F0,$08,$08,$F0,$F0,$08,$08,$F0,$F0,$EE,$0A,$0A,$EE,$EE,$0A
	$89F1               .byte $0A,$EE,$EE,$0A,$0A,$EE,$EE,$0A,$0A,$EE,$F8,$08,$08,$F8,$F8,$08
	$8A01               .byte $08,$F8,$F8,$08,$08,$F8,$F8,$08,$08,$F8,$91,$93,$97,$97,$FC,$92
	$8A11               .byte $95,$9A,$9A,$FC,$FC,$94,$98,$98,$FC,$FC,$96,$9B,$9B,$FC,$FC,$FC
	$8A21               .byte $99,$99,$FC,$FC,$FC,$9C,$9C,$FC,$C0,$40,$00,$80,$A5,$F3,$09,$80
	$8A31               .byte $85,$F3,$A9,$00,$38,$FD,$08,$05,$9D,$08,$05,$A9,$00,$FD,$E0,$04
	$8A41               .byte $9D,$E0,$04,$60,$A5,$F3,$09,$80,$85,$F3,$A9,$00,$38,$FD,$1C,$05
	$8A51               .byte $9D,$1C,$05,$A9,$00,$FD,$F4,$04,$9D,$F4,$04,$60,$A4,$CD,$A9,$00
	$8A61               .byte $85,$CC,$B1,$27,$38,$E9,$08,$DD,$A4,$04,$B0,$66,$69,$03,$DD,$A4
	$8A71               .byte $04,$90,$04,$A9,$01,$D0,$10,$B1,$29,$DD,$A4,$04,$90,$54,$E9,$03
	$8A81               .byte $DD,$A4,$04,$B0,$1D,$A9,$02,$85,$CC,$B1,$23,$C9,$10,$F0,$08,$38
	$8A91               .byte $E9,$04,$DD,$90,$04,$B0,$07,$B1,$25,$DD,$90,$04,$B0,$04,$A9,$00
	$8AA1               .byte $85,$CC,$B1,$23,$C9,$10,$F0,$15,$38,$E9,$08,$DD,$90,$04,$B0,$22
	$8AB1               .byte $69,$03,$DD,$90,$04,$90,$06,$A5,$CC,$09,$04,$D0,$13,$B1,$25,$C9
	$8AC1               .byte $FF,$F0,$0F,$DD,$90,$04,$90,$0A,$E9,$03,$B0,$06,$A5,$CC,$09,$08
	$8AD1               .byte $85,$CC,$A5,$CC,$D0,$07,$88,$30,$03,$4C,$5F,$CA,$60,$46,$CC,$90
	$8AE1               .byte $08,$BD,$F4,$04,$30,$03,$20,$45,$CA,$46,$CC,$90,$08,$BD,$F4,$04
	$8AF1               .byte $10,$03,$20,$45,$CA,$46,$CC,$90,$08,$BD,$E0,$04,$30,$03,$20,$2D
	$8B01               .byte $CA,$46,$CC,$90,$08,$BD,$E0,$04,$10,$03,$20,$2D,$CA,$4C,$D7,$CA
	$8B11               .byte $60,$A0,$01,$B9,$88,$00,$30,$4D,$F0,$4B,$B9,$BD,$00,$D0,$46,$BD
	$8B21               .byte $90,$04,$38,$F9,$91,$00,$20,$84,$F0,$C9,$08,$B0,$38,$BD,$A4,$04
	$8B31               .byte $38,$F9,$9A,$00,$38,$E9,$08,$20,$84,$F0,$C9,$0C,$B0,$27,$A9,$00
	$8B41               .byte $99,$88,$00,$A9,$01,$99,$7F,$00,$99,$C1,$00,$A9,$0B,$99,$51,$04
	$8B51               .byte $A9,$20,$99,$5A,$04,$A5,$F0,$09,$80,$85,$F0,$A9,$F0,$9D,$A4,$04
	$8B61               .byte $A9,$FF,$9D,$30,$05,$88,$10,$AB,$60,$AE,$D1,$05,$30,$2E,$20,$9E
	$8B71               .byte $CB,$BD,$04,$06,$F0,$23,$8A,$45,$19,$29,$01,$D0,$1C,$BC,$FA,$05
	$8B81               .byte $C8,$98,$29,$03,$9D,$FA,$05,$20,$C1,$CC,$BD,$FA,$05,$C9,$01,$D0
	$8B91               .byte $08,$DE,$0E,$06,$D0,$03,$DE,$04,$06,$CA,$10,$D2,$60,$A0,$07,$BD
	$8BA1               .byte $04,$06,$D0,$03,$4C,$30,$CC,$B9,$88,$00,$30,$78,$F0,$76,$C0,$02
	$8BB1               .byte $90,$04,$C9,$01,$F0,$6E,$B9,$91,$00,$18,$69,$08,$38,$FD,$D2,$05
	$8BC1               .byte $85,$12,$20,$84,$F0,$C9,$12,$B0,$5B,$B9,$9A,$00,$18,$69,$0C,$38
	$8BD1               .byte $FD,$DC,$05,$85,$13,$20,$84,$F0,$C9,$12,$B0,$48,$A5,$12,$30,$11
	$8BE1               .byte $C9,$03,$90,$1C,$A9,$02,$99,$1B,$04,$20,$29,$CC,$20,$B1,$EB,$D0
	$8BF1               .byte $0F,$C9,$FD,$B0,$0B,$A9,$FE,$99,$1B,$04,$20,$B1,$EB,$20,$29,$CC
	$8C01               .byte $A5,$13,$30,$11,$C9,$03,$90,$1C,$A9,$02,$99,$2D,$04,$20,$A8,$EB
	$8C11               .byte $20,$29,$CC,$D0,$0F,$C9,$FD,$B0,$0B,$A9,$FE,$99,$2D,$04,$20,$A8
	$8C21               .byte $EB,$20,$29,$CC,$88,$10,$80,$60,$A5,$F1,$09,$02,$85,$F1,$60,$B9
	$8C31               .byte $88,$00,$30,$79,$F0,$77,$C0,$02,$90,$2E,$BD,$FA,$05,$C9,$03,$D0
	$8C41               .byte $27,$BD,$D2,$05,$38,$E9,$0A,$D9,$91,$00,$B0,$1C,$69,$04,$D9,$91
	$8C51               .byte $00,$90,$15,$BD,$DC,$05,$38,$E9,$1C,$D9,$9A,$00,$B0,$0A,$69,$04
	$8C61               .byte $D9,$9A,$00,$90,$03,$20,$B5,$CC,$B9,$91,$00,$18,$69,$08,$38,$FD
	$8C71               .byte $D2,$05,$20,$84,$F0,$85,$12,$B9,$9A,$00,$18,$69,$0C,$38,$FD,$DC
	$8C81               .byte $05,$20,$84,$F0,$85,$13,$BD,$FA,$05,$C9,$03,$F0,$0A,$A5,$12,$48
	$8C91               .byte $A5,$13,$85,$12,$68,$85,$13,$A5,$12,$C9,$14,$B0,$10,$A5,$13,$C9
	$8CA1               .byte $0B,$B0,$0A,$A9,$01,$9D,$04,$06,$A9,$32,$9D,$0E,$06,$88,$30,$03
	$8CB1               .byte $4C,$30,$CC,$60,$8A,$48,$98,$AA,$E6,$CB,$20,$79,$E9,$68,$AA,$60
	$8CC1               .byte $BD,$F0,$05,$85,$57,$BD,$E6,$05,$85,$58,$A9,$03,$85,$59,$BC,$FA
	$8CD1               .byte $05,$B9,$1C,$CD,$85,$5A,$B9,$20,$CD,$85,$5B,$B9,$24,$CD,$85,$5C
	$8CE1               .byte $20,$05,$CD,$B9,$28,$CD,$85,$5A,$B9,$2C,$CD,$85,$5B,$B9,$30,$CD
	$8CF1               .byte $85,$5C,$20,$05,$CD,$B9,$34,$CD,$85,$5A,$B9,$38,$CD,$85,$5B,$B9
	$8D01               .byte $3C,$CD,$85,$5C,$98,$48,$A9,$57,$A0,$00,$20,$27,$C1,$68,$A8,$A5
	$8D11               .byte $58,$18,$69,$20,$85,$58,$90,$02,$E6,$57,$60,$A1,$24,$24,$24,$A2
	$8D21               .byte $9E,$AB,$24,$24,$24,$AC,$24,$A3,$24,$AD,$A8,$A4,$9F,$AE,$A9,$A5
	$8D31               .byte $24,$AF,$AA,$24,$24,$B0,$24,$A6,$A0,$B1,$24,$A7,$24,$24,$24,$A2
	$8D41               .byte $09,$A9,$FF,$9D,$5D,$05,$A9,$F0,$9D,$7B,$05,$CA,$10,$F3,$60,$CE
	$8D51               .byte $CC,$05,$F0,$01,$60,$A5,$1B,$29,$3F,$69,$28,$8D,$CC,$05,$A2,$09
	$8D61               .byte $BD,$5D,$05,$30,$04,$CA,$10,$F8,$60,$A9,$00,$9D,$5D,$05,$9D,$99
	$8D71               .byte $05,$9D,$8F,$05,$A9,$80,$9D,$71,$05,$9D,$85,$05,$A9,$D0,$9D,$7B
	$8D81               .byte $05,$20,$A9,$F1,$29,$03,$A8,$B9,$A4,$CE,$9D,$67,$05,$A0,$00,$A5
	$8D91               .byte $1B,$9D,$B7,$05,$10,$01,$88,$98,$9D,$C1,$05,$CE,$CB,$05,$60,$A2
	$8DA1               .byte $09,$BD,$5D,$05,$30,$71,$F0,$49,$BD,$99,$05,$85,$12,$BD,$8F,$05
	$8DB1               .byte $85,$13,$20,$9C,$F1,$BD,$B7,$05,$18,$65,$12,$9D,$B7,$05,$85,$12
	$8DC1               .byte $BD,$C1,$05,$65,$13,$9D,$C1,$05,$85,$13,$20,$9C,$F1,$BD,$99,$05
	$8DD1               .byte $38,$E5,$12,$9D,$99,$05,$BD,$8F,$05,$E5,$13,$9D,$8F,$05,$BD,$71
	$8DE1               .byte $05,$18,$7D,$99,$05,$9D,$71,$05,$BD,$67,$05,$7D,$8F,$05,$9D,$67
	$8DF1               .byte $05,$BD,$85,$05,$38,$ED,$5A,$05,$9D,$85,$05,$B0,$03,$DE,$7B,$05
	$8E01               .byte $BD,$7B,$05,$C9,$F0,$F0,$0B,$C9,$A8,$B0,$0C,$A9,$01,$9D,$5D,$05
	$8E11               .byte $D0,$05,$A9,$FF,$9D,$5D,$05,$20,$25,$CE,$20,$C4,$CE,$CA,$30,$03
	$8E21               .byte $4C,$A2,$CD,$60,$BC,$5D,$05,$C8,$B9,$A8,$CE,$85,$13,$8A,$85,$12
	$8E31               .byte $0A,$65,$12,$0A,$0A,$A8,$BD,$7B,$05,$99,$50,$02,$99,$54,$02,$18
	$8E41               .byte $69,$08
_data_0E43
	$8E43               .byte $99,$58,$02,$BD,$67,$05,$99,$53,$02,$18,$69,$04,$99,$5B,$02,$18
	$8E53               .byte $69,$04,$99,$57,$02,$A5,$13,$99,$52,$02,$99,$56,$02,$99,$5A,$02
	$8E63               .byte $BD,$5D,$05,$30,$27,$A9,$A8,$99,$51,$02,$A9,$A9,$99,$55,$02,$A5
	$8E73               .byte $19,$4A,$4A,$4A,$4A,$29,$07,$86,$13,$AA,$BD,$AB,$CE,$99,$59,$02
	$8E83               .byte $B9,$5A,$02,$5D,$B3,$CE,$99,$5A,$02,$A6,$13,$60,$A9,$F0,$9D,$7B
	$8E93               .byte $05,$A9,$AC,$99,$51,$02,$A9,$AD,$99,$55,$02,$A9,$FC,$99,$59,$02
	$8EA3               .byte $60,$20,$50,$A0,$D0,$02,$22,$02,$AA,$AB,$AB,$AA,$AA,$AB,$AB,$AA
	$8EB3               .byte $00,$00,$40,$40,$40,$40,$00,$00,$FC,$FC,$DF,$FC,$FC,$E0,$E2,$E1
	$8EC3               .byte $FC,$A0,$01,$B9,$88,$00,$30,$3A,$F0,$38,$BD,$5D,$05,$30,$36,$B9
	$8ED3               .byte $9A,$00,$C9,$C0,$B0,$2C,$38,$FD,$7B,$05,$20,$84,$F0,$C9,$18,$B0
	$8EE3               .byte $21,$B9,$91,$00,$38,$FD,$67,$05,$20,$84,$F0,$C9,$10,$B0,$13,$A9
	$8EF3               .byte $FF,$9D,$5D,$05,$B9,$CD,$05,$18,$69,$01,$99,$CD,$05,$A9,$02,$85
	$8F03               .byte $F0,$60,$88,$10,$BE,$60,$A9,$20,$85,$F2,$20,$D8,$D0,$20,$40,$CD
	$8F13               .byte $A6,$40,$B5,$41,$30,$03,$20,$A6,$F3,$CA,$10,$F6,$A2,$00,$86,$BD
	$8F23               .byte $86,$BE,$A9,$14,$8D,$CB,$05,$20,$66,$F4,$E6,$4C,$20,$D3,$D8,$20
	$8F33               .byte $87,$E6,$AD,$CB,$05,$F0,$03,$20,$50,$CD,$20,$A0,$CD,$AD,$CB,$05
	$8F43               .byte $D0,$E5,$A2,$09,$BD,$5D,$05,$10,$DE,$CA,$10,$F8,$A5,$19,$D0,$D7
	$8F53               .byte $20,$3C,$D2,$A2,$02,$86,$46,$20,$54,$F4,$A9,$21,$A0,$D1,$20,$27
	$8F63               .byte $C1,$A9,$50,$A0,$D1,$20,$27,$C1,$A9,$5B,$A0,$D1,$20,$27,$C1,$A6
	$8F73               .byte $40,$A9,$20,$95,$91,$BD,$94,$D1,$95,$9A,$A9,$03,$95,$7F,$A9,$01
	$8F83               .byte $9D,$48,$04,$20,$A6,$F3,$20,$9A,$E3,$CA,$10,$E5,$A9,$44,$8D,$67
	$8F93               .byte $05,$8D,$68,$05,$A9,$54,$8D,$7B,$05,$A9,$74,$8D,$7C,$05,$A9,$01
	$8FA3               .byte $8D,$5D,$05,$8D,$5E,$05,$A6,$40,$20,$25,$CE,$CA,$10,$FA,$20,$52
	$8FB3               .byte $F4,$A9,$2B,$85,$57,$A9,$24,$85,$58,$85,$59,$A9,$0C,$85,$54,$A9
	$8FC3               .byte $0B,$85,$55,$A9,$05,$85,$56,$AD,$CD,$05,$20,$BF,$D1,$A5,$40,$F0
	$8FD3               .byte $0A,$A9,$0F,$85,$55,$AD,$CE,$05,$20,$BF,$D1,$20,$52,$F4,$AD,$59
	$8FE3               .byte $05,$85,$57,$A9,$00,$85,$58,$85,$59,$A9,$08,$85,$54,$A9,$0B,$85
	$8FF3               .byte $55,$A9,$03,$85,$56,$AD,$59,$05,$20,$0F,$C1,$A5,$40,$F0,$07,$A9
	$9003               .byte $0F,$85,$55,$20,$0F,$C1,$A9,$FF,$8D,$5D,$05,$8D,$5E,$05,$A6,$40
	$9013               .byte $20,$25,$CE,$CA,$10,$FA,$A9,$02,$85,$F0,$A2,$02,$20,$54,$F4,$A6
	$9023               .byte $40,$20,$25,$CE,$CA,$10,$FA,$20,$96,$D1,$20,$52,$F4,$A9,$01,$85
	$9033               .byte $F0,$20,$17,$D1,$D0,$25,$A9,$66,$A0,$D1,$20,$27,$C1,$20,$5B,$F4
	$9043               .byte $A2,$1A,$BD,$7A,$D1,$95,$57,$CA,$10,$F8,$AD,$5B,$05,$85,$68,$AD
	$9053               .byte $5C,$05,$85,$69,$20,$23,$C1,$A9,$10,$85,$F2,$A2,$78,$20,$54,$F4
	$9063               .byte $20,$96,$D1,$A9,$00,$85,$3E,$A2,$04,$20,$09,$D2,$20,$23,$C1,$A5
	$9073               .byte $40,$F0,$0E,$E6,$3E,$A2,$12,$20,$09,$D2,$A9,$65,$A0,$00,$20,$27
	$9083               .byte $C1,$A9,$01,$85,$F1,$A2,$02,$20,$54,$F4,$A5,$5D,$C9,$24,$D0,$D3
	$9093               .byte $A5,$40,$F0,$07,$AD,$6B,$00,$C9,$24,$D0,$C8,$A2,$0A,$20,$54,$F4
	$90A3               .byte $20,$17,$D1,$D0,$1C,$AD,$5B,$05,$85,$47,$AD,$5C,$05,$85,$48,$A5
	$90B3               .byte $40,$85,$3E,$20,$D2,$D6,$C6,$3E,$10,$F9,$A9,$01,$85,$F1,$20,$52
	$90C3               .byte $F4,$A9,$00,$85,$47,$85,$48,$A2,$01,$B5,$41,$10,$02,$95,$88,$CA
	$90D3               .byte $10,$F7,$4C,$49,$F3,$AE,$58,$05,$BD,$03,$D1,$8D,$59,$05,$BD,$08
	$90E3               .byte $D1,$8D,$5A,$05,$BD,$0D,$D1,$8D,$5B,$05,$BD,$12,$D1,$8D,$5C,$05
	$90F3               .byte $E0,$04,$B0,$03,$EE,$58,$05,$A9,$00,$8D,$CD,$05,$8D,$CE,$05,$60
	$9103               .byte $03,$05,$07,$07,$07,$80,$90,$98,$A0,$A8,$01,$01,$02,$02,$03,$00
	$9113               .byte $05,$00,$05,$00,$AD,$CD,$05,$18,$6D,$CE,$05,$C9,$14,$60,$3F,$00
	$9123               .byte $10,$0F,$30,$30,$30,$0F,$30,$27,$15,$0F,$30,$02,$21,$0F,$16,$16
	$9133               .byte $16,$21,$73,$0B,$29,$00,$00,$00,$00,$00,$24,$19,$1D,$1C,$26,$21
	$9143               .byte $F3,$0B,$29,$00,$00,$00,$00,$00,$24,$19,$1D,$1C,$26,$23,$E8,$08
	$9153               .byte $FF,$FF,$FF,$FF,$FF,$FF,$FF,$FF,$23,$C0,$08,$40,$50,$50,$50,$50
	$9163               .byte $90,$A0,$A0,$22,$88,$11,$19,$24,$0E,$24,$1B,$24,$0F,$24,$0E,$24
	$9173               .byte $0C,$24,$1D,$24,$2C,$2C,$2C,$22,$C6,$17,$1C,$1E,$19,$0E,$1B,$24
	$9183               .byte $0B,$18,$17,$1E,$1C,$24,$24,$24,$01,$00,$00,$00,$00,$19,$1D,$1C
	$9193               .byte $2C,$50,$70,$A2,$1C,$BD,$34,$D1,$95,$57,$CA,$10,$F8,$A2,$04,$AC
	$91A3               .byte $CD,$05,$20,$D2,$D1,$A2,$12,$AC,$CE,$05,$20,$D2,$D1,$20,$23,$C1
	$91B3               .byte $A5,$40,$D0,$01,$60,$A9,$65,$A0,$00,$4C,$27,$C1,$A0,$00,$C9,$0A
	$91C3               .byte $90,$06,$C8,$E9,$0A,$4C,$C1,$D1,$84,$5A,$85,$5B,$4C,$0F,$C1,$88
	$91D3               .byte $30,$1F,$AD,$59,$05,$18,$75,$59,$C9,$0A,$90,$04,$E9,$0A,$F6,$58
	$91E3               .byte $95,$59,$B5,$58,$C9,$0A,$90,$06,$E9,$0A,$F6,$57,$95,$58,$4C,$D2
	$91F3               .byte $D1,$A0,$00,$B5,$57,$F0,$04,$C9,$24,$D0,$0A,$A9,$24,$95,$57,$E8
	$9203               .byte $C8,$C0,$04,$D0,$EE,$60,$B5,$59,$C9,$24,$F0,$2A,$A8,$D0,$1C,$B5
	$9213               .byte $58,$C9,$24,$F0,$21,$B5,$58,$D0,$0C,$B5,$57,$C9,$24,$F0,$17,$A9
	$9223               .byte $0A,$95,$58,$D6,$57,$A9,$0A,$95,$59,$D6,$58,$D6,$59,$8A,$48,$A9
	$9233               .byte $0A,$20,$D4,$D6,$68,$AA,$4C,$F4,$D1,$20,$00,$C1,$20,$F0,$C0,$A9
	$9243               .byte $20,$8D,$06,$20,$A9,$00,$8D,$06,$20,$20,$6B,$D2,$20,$6B,$D2,$20
	$9253               .byte $FA,$C0,$20,$0B,$C1,$A2,$3F,$A0,$00,$84,$4C,$A9,$F0,$99,$00,$02
	$9263               .byte $C8,$C8,$C8,$C8,$CA,$10,$F4,$60,$A2,$F0,$A9,$24,$8D,$07,$20,$8D
	$9273               .byte $07,$20,$8D,$07,$20,$8D,$07,$20,$CA,$D0,$F1,$A2,$40,$A9,$00,$8D
	$9283               .byte $07,$20,$CA,$D0,$FA,$60,$20,$00,$C1,$20,$F0,$C0,$A5,$16,$F0,$03
	$9293               .byte $4C,$68,$D5,$A4,$3B,$B9,$20,$DB,$85,$1D,$B9,$30,$DB,$85,$1E,$20
	$92A3               .byte $8D,$D4,$A2,$00,$20,$DB,$D4,$C9,$FF,$F0,$6A,$85,$54,$20,$DB,$D4
	$92B3               .byte $85,$55,$A0,$03,$20,$F1,$D4,$A9,$04,$85,$12,$B9,$89,$D4,$8D,$07
	$92C3               .byte $20,$18,$69,$04,$C6,$12,$D0,$F6,$E6,$55,$88,$10,$E7,$A5,$55,$38
	$92D3               .byte $E9,$04,$85,$55,$20,$12,$D5,$95,$A6,$E6,$54,$E6,$54,$20,$12,$D5
	$92E3               .byte $95,$A9,$E6,$55,$E6,$55,$20,$12,$D5,$95,$AF,$C6,$54,$C6,$54,$20
	$92F3               .byte $12,$D5,$95,$AC,$86,$A4,$A9,$03,$20,$4C,$C8,$20,$72,$C1,$A6,$A4
	$9303               .byte $A5,$54,$0A,$0A,$0A,$18,$69,$10,$95,$B2,$A5,$55,$0A,$0A,$0A,$95
	$9313               .byte $B5,$E8,$4C,$A7,$D2,$CA,$86,$A3,$A2,$00,$20,$DB,$D4,$C9,$FF,$F0
	$9323               .byte $50,$85,$54,$20,$DB,$D4,$85,$55,$20,$DB,$D4,$9D,$FA,$05,$A5,$54
	$9333               .byte $0A,$0A,$0A,$69,$0C,$9D,$D2,$05,$A5,$55,$0A,$0A,$0A,$69,$0C,$9D
	$9343               .byte $DC,$05,$A9,$00,$9D,$04,$06,$20,$F1,$D4,$9D,$E6,$05,$A5,$13,$9D
	$9353               .byte $F0,$05,$20,$62,$D5,$20,$32,$D5,$E6,$54,$E6,$54,$20,$32,$D5,$E6
	$9363               .byte $55,$E6,$55,$20,$32,$D5,$C6,$54,$C6,$54,$20,$32,$D5,$E8,$4C,$1D
	$9373               .byte $D3,$CA,$8E,$D1,$05,$20,$DB,$D4,$85,$1F,$20,$DB,$D4,$85,$20,$A0
	$9383               .byte $00,$B1,$1F,$AA,$CA,$10,$05,$E6,$C8,$4C,$B0,$D3,$C8,$B1,$1F,$C8
	$9393               .byte $95,$93,$B1,$1F,$C8,$95,$9C,$B1,$1F,$C8,$9D,$53,$04,$A9,$02,$95
	$93A3               .byte $81,$A9,$01,$95,$8A,$A5,$C6,$9D,$41,$04,$CA,$10,$E0,$20,$DB,$D4
	$93B3               .byte $85,$CD,$20,$DB,$D4,$85,$23,$20,$DB,$D4,$A8,$85,$24,$A5,$23,$20
	$93C3               .byte $82,$D4,$85,$25,$84,$26,$20,$82,$D4,$85,$27,$84,$28,$20,$82,$D4
	$93D3               .byte $85,$29,$84,$2A,$20,$CF,$D5,$20,$E3,$D3,$20,$FA,$C0,$4C,$0B,$C1
	$93E3               .byte $A2,$22,$BD,$2D,$D4,$95,$57,$CA,$10,$F8,$A5,$C8,$D0,$15,$A5,$3B
	$93F3               .byte $29,$0C,$09,$03,$A8,$A2,$03,$B9,$50,$D4,$95,$5A,$88,$CA,$10,$F7
	$9403               .byte $4C,$23,$C1,$AE,$58,$05,$BD,$60,$D4,$85,$1D,$BD,$65,$D4,$85,$1E
	$9413               .byte $A2,$03,$A0,$07,$B1,$1D,$95,$72,$88,$CA,$10,$F8,$A5,$16,$D0,$E0
	$9423               .byte $B1,$1D,$99,$5A,$00,$88,$10,$F8,$30,$D6,$3F,$00,$20,$0F,$2A,$09
	$9433               .byte $07,$0F,$30,$27,$15,$0F,$30,$02,$21,$0F,$30,$00,$10,$0F,$16,$12
	$9443               .byte $37,$0F,$12,$16,$37,$0F,$17,$11,$35,$0F,$17,$11,$2B,$0F,$2A,$09
	$9453               .byte $07,$0F,$26,$06,$07,$0F,$1B,$0C,$07,$0F,$2C,$01,$06,$6A,$72,$7A
	$9463               .byte $7A,$7A,$D4,$D4,$D4,$D4,$D4,$0F,$02,$08,$06,$0F,$2B,$30,$12,$0F
	$9473               .byte $07,$0A,$19,$0F,$26,$30,$2B,$0F,$07,$0C,$1C,$0F,$15,$30,$26,$38
	$9483               .byte $65,$CD,$90,$01,$C8,$60,$7F,$7E,$7D,$7C,$20,$DB,$D4,$85,$1F,$20
	$9493               .byte $DB,$D4,$85,$20,$AA,$F0,$40,$20,$E6,$D4,$AA,$F0,$ED,$29,$7F,$8D
	$94A3               .byte $06,$20,$20,$E6,$D4,$8D,$06,$20,$20,$E6,$D4,$85,$12,$8A,$29,$80
	$94B3               .byte $4A,$4A,$4A,$4A,$4A,$05,$00,$8D,$00,$20,$8A,$29,$40,$D0,$0C,$20
	$94C3               .byte $E6,$D4,$8D,$07,$20,$C6,$12,$D0,$F6,$F0,$CC,$20,$E6,$D4,$8D,$07
	$94D3               .byte $20,$C6,$12,$D0,$F9,$F0,$C0,$60,$A0,$00,$B1,$1D,$E6,$1D,$D0,$02
	$94E3               .byte $E6,$1E,$60,$A0,$00,$B1,$1F,$E6,$1F,$D0,$02,$E6,$20,$60,$A5,$55
	$94F3               .byte $85,$12,$A9,$00,$06,$12,$06,$12,$06,$12,$06,$12,$2A,$06,$12,$2A
	$9503               .byte $09,$20,$8D,$06,$20,$85,$13,$A5,$12,$05,$54,$8D,$06,$20,$60,$A5
	$9513               .byte $55,$29,$FC,$0A,$85,$12,$A5,$54,$4A,$4A,$05,$12,$09,$C0,$48,$A5
	$9523               .byte $55,$29,$02,$85,$12,$A5,$54,$29,$02,$4A,$05,$12,$A8,$68,$60,$A9
	$9533               .byte $23,$8D,$06,$20,$20,$12,$D5,$8D,$06,$20,$AD,$07,$20,$AD,$07,$20
	$9543               .byte $39,$5A,$D5,$19,$5E,$D5,$48,$A9,$23,$8D,$06,$20,$20,$12,$D5,$8D
	$9553               .byte $06,$20,$68,$8D,$07,$20,$60,$FC,$F3,$CF,$3F,$01,$04,$10,$40,$20
	$9563               .byte $C1,$CC,$4C,$72,$C1,$A9,$C0,$A0,$23,$20,$89,$D5,$A9,$C0,$A0,$27
	$9573               .byte $20,$89,$D5,$A0,$23,$A9,$60,$20,$AE,$D5,$A0,$27,$A9,$60,$20,$AE
	$9583               .byte $D5,$E6,$C8,$4C,$D7,$D3,$8C,$06,$20,$8D,$06,$20,$A2,$00,$BD,$A4
	$9593               .byte $DC,$8D,$07,$20,$E8,$E0,$08,$D0,$F5,$A9,$00,$A2,$28,$20,$A7,$D5
	$95A3               .byte $A9,$AA,$A2,$10,$8D,$07,$20,$CA,$D0,$FA,$60,$8C,$06,$20,$8D,$06
	$95B3               .byte $20,$A2,$20,$A9,$58,$20,$BF,$D5,$A2,$40,$A9,$5C,$85,$12,$8A,$29
	$95C3               .byte $03,$49,$03,$05,$12,$8D,$07,$20,$CA,$D0,$F3,$60,$A2,$00,$20,$47
	$95D3               .byte $D6,$20,$E7,$D5,$A5,$51,$09,$04,$85,$51,$20,$E7,$D5,$E8,$E8,$E0
	$95E3               .byte $80,$D0,$EB,$60,$A5,$51,$8D,$06,$20,$A5,$50,$8D,$06,$20,$AD,$07
	$95F3               .byte $20,$AD,$07,$20,$C9,$24,$D0,$07,$8A,$29,$03,$A8,$4C,$31,$D6,$60
	$9603               .byte $A5,$4C,$F0,$29,$C6,$4C,$A5,$4F,$18,$69,$02,$29,$3F,$85,$4F,$AA
	$9613               .byte $20,$47,$D6,$A5,$51,$8D,$06,$20,$A5,$50,$8D,$06,$20,$AD,$07,$20
	$9623               .byte $AD,$07,$20,$A0,$03,$D9,$42,$D6,$F0,$04,$88,$10,$F8,$60,$A5,$51
	$9633               .byte $8D,$06,$20,$A5,$50,$8D,$06,$20,$B9,$43,$D6,$8D,$07,$20,$60,$24
	$9643               .byte $ED,$EE,$EF,$24,$BD,$52,$D6,$85,$50,$BD,$53,$D6,$85,$51,$60,$63
	$9653               .byte $21,$A5,$21,$CB,$20,$B7,$20,$7D,$21,$9B,$22,$F2,$20,$49,$22,$6D
	$9663               .byte $21,$0B,$22,$92,$22,$95,$21,$1C,$21,$48,$21,$E0,$20,$0B,$23,$CE
	$9673               .byte $20,$D0,$21,$06,$21,$19,$21,$30,$22,$8A,$22,$88,$22,$A4,$20,$42
	$9683               .byte $22,$68,$21,$3C,$22,$36,$21,$CA,$21,$BC,$20,$96,$21,$4C,$21,$35
	$9693               .byte $22,$EF,$20,$68,$22,$A6,$20,$BB,$21,$7A,$21,$EA,$20,$F1,$21,$C2
	$96A3               .byte $20,$77,$21,$54,$21,$BA,$20,$C5,$22,$BE,$20,$FA,$20,$AE,$21,$46
	$96B3               .byte $21,$9A,$21,$D2,$20,$3D,$21,$2B,$22,$B0,$20,$B6,$21,$AC,$20,$B3
	$96C3               .byte $20,$DB,$20,$F6,$20,$2C,$21,$E7,$20,$62,$21,$E4,$21,$4E,$21,$A9
	$96D3               .byte $00,$85,$43,$A5,$3A,$F0,$01,$60,$A6,$3E,$E0,$02,$B0,$F9,$B5,$41
	$96E3               .byte $30,$F5,$A0,$64,$20,$72,$D7,$18,$65,$48,$85,$45,$A0,$0A,$20,$72
	$96F3               .byte $D7,$85,$44,$A6,$3F,$BD,$6F,$D7,$85,$21,$A9,$06,$85,$22,$A5,$3E
	$9703               .byte $0A,$0A,$05,$3E,$AA,$18,$B5,$03,$65,$43,$20,$85,$D7,$95,$03,$B5
	$9713               .byte $04,$65,$44,$20,$85,$D7,$95,$04,$B5,$05,$65,$45,$20,$85,$D7,$95
	$9723               .byte $05,$B5,$06,$65,$47,$20,$85,$D7,$95,$06,$B5,$07,$69,$00,$20,$85
	$9733               .byte $D7,$95,$07,$E8,$E8,$E8,$E8,$A0,$04,$B5,$03,$D1,$21,$90,$19,$D0
	$9743               .byte $04,$CA,$88,$10,$F4,$A0,$00,$A5,$3E,$0A,$0A,$05,$3E,$AA,$B5,$03
	$9753               .byte $91,$21,$E8,$C8,$C0,$05,$D0,$F6,$A0,$04,$B1,$21,$99,$0D,$00,$88
	$9763               .byte $10,$F8,$E6,$46,$A5,$16,$F0,$03,$20,$2F,$C5,$60,$29,$2E,$33,$84
	$9773               .byte $12,$A2,$FF,$A5,$43,$38,$E5,$12,$E8,$B0,$FA,$18,$65,$12,$85,$43
	$9783               .byte $8A,$60,$C9,$0A,$B0,$01,$60,$38,$E9,$0A,$60,$A4,$46,$88,$F0,$03
	$9793               .byte $10,$66,$60,$A9,$20,$8D,$06,$20,$A9,$43,$8D,$06,$20,$A9,$8E,$8D
	$97A3               .byte $07,$20,$A2,$04,$B5,$03,$8D,$07,$20,$CA,$10,$F8,$A9,$00,$8D,$07
	$97B3               .byte $20,$A9,$24,$8D,$07,$20,$8D,$07,$20,$A2,$8C,$8E,$07,$20,$E8,$8E
	$97C3               .byte $07,$20,$A2,$04,$B5,$0D,$8D,$07,$20,$CA,$10,$F8,$A9,$00,$8D,$07
	$97D3               .byte $20,$A9,$24,$8D,$07,$20,$8D,$07,$20,$A5,$16,$D0,$6A,$A5,$40,$F0
	$97E3               .byte $14,$A9,$8F,$8D,$07,$20,$A2,$04,$B5,$08,$8D,$07,$20,$CA,$10,$F8
	$97F3               .byte $A9,$00,$8D,$07,$20,$C6,$46,$60,$C6,$46,$A9,$20,$8D,$06,$20,$A9
	$9803               .byte $62,$8D,$06,$20,$A5,$41,$20,$1C,$D8,$A5,$40,$F0,$20,$A9,$20,$8D
	$9813               .byte $06,$20,$A9,$75,$8D,$06,$20,$A5,$42,$30,$13,$85,$50,$A2,$06,$A9
	$9823               .byte $24,$E4,$50,$B0,$02,$A9,$2A,$8D,$07,$20,$CA,$10,$F2,$60,$A5,$40
	$9833               .byte $F0,$E9,$A2,$08,$BD,$41,$D8,$8D,$07,$20,$CA,$10,$F7,$60,$1B,$0E
	$9843               .byte $1F,$18,$24,$0E,$16,$0A,$10,$A0,$04,$B9,$62,$D8,$8D,$07,$20,$88
	$9853               .byte $10,$F7,$A5,$4A,$8D,$07,$20,$A5,$49,$8D,$07,$20,$C6,$46,$60,$FB
	$9863               .byte $FA,$F9,$F8,$F7,$85,$12,$86,$13,$84,$14,$A2,$01,$BD,$1A,$06,$30
	$9873               .byte $0E,$CA,$10,$F8,$A2,$01,$AD,$19,$06,$CD,$18,$06,$90,$01,$CA,$A9
	$9883               .byte $64,$9D,$18,$06,$A5,$12,$9D,$1A,$06,$A8,$8A,$0A,$0A,$0A,$AA,$B9
	$9893               .byte $C7,$D8,$9D,$F1,$02,$B9,$CD,$D8,$9D,$F5,$02,$A4,$13,$B9,$9A,$00
	$98A3               .byte $38,$E9,$08,$9D,$F0,$02,$9D,$F4,$02,$B9,$91,$00,$9D,$F3,$02,$18
	$98B3               .byte $69,$08,$9D,$F7,$02,$A5,$3E,$9D,$F2,$02,$9D,$F6,$02,$A4,$14,$A6
	$98C3               .byte $13,$A5,$12,$60,$F4,$F5,$F6,$F7,$F8,$F9,$FB,$FB,$FA,$FB,$FB,$FB
	$98D3               .byte $A2,$01,$BD,$1A,$06,$30,$17,$DE,$18,$06,$D0,$12,$A9,$FF,$9D,$1A
	$98E3               .byte $06,$8A,$0A,$0A,$0A,$A8,$A9,$F0,$99,$F0,$02,$99,$F4,$02,$CA,$10
	$98F3               .byte $E1,$60,$A2,$01,$A9,$00,$9D,$18,$06,$A9,$FF,$9D,$1A,$06,$CA,$10
	$9903               .byte $F3,$60,$20,$3C,$D2,$20,$00,$C1,$20,$5B,$F4,$20,$F0,$C0,$A9,$22
	$9913               .byte $85,$1D,$A9,$D9,$85,$1E,$20,$8D,$D4,$20,$FA,$C0,$4C,$0B,$C1,$26
	$9923               .byte $D9,$00,$00,$3F,$00,$04,$0F,$30,$27,$2A,$3F,$18,$04,$0F,$16,$30
	$9933               .byte $21,$20,$7C,$21,$F0,$F1,$24,$24,$24,$24,$E0,$E1,$E1,$E2,$E0,$E1
	$9943               .byte $E1,$E2,$E0,$E2,$24,$E0,$E2,$24,$E0,$E1,$E1,$E2,$E0,$E1,$E1,$E2
	$9953               .byte $E0,$EC,$24,$E0,$E2,$20,$A2,$1B,$E3,$E3,$E3,$E5,$E3,$E3,$E3,$E5
	$9963               .byte $E3,$E5,$24,$E3,$E5,$24,$E3,$E3,$E3,$E5,$E3,$E3,$E3,$E5,$E3,$E3
	$9973               .byte $F3,$E3,$E5,$20,$C2,$1B,$E3,$E4,$E3,$E7,$E3,$E4,$E3,$E5,$E3,$E5
	$9983               .byte $24,$E3,$E5,$24,$E3,$E4,$E3,$E5,$E3,$E4,$E3,$E5,$E3,$E3,$E3,$E3
	$9993               .byte $E5,$20,$E2,$1B,$E3,$E3,$E3,$E2,$E3,$E3,$E3,$E5,$E3,$E5,$24,$E3
	$99A3               .byte $E5,$24,$E3,$E3,$E3,$E5,$E3,$E3,$E3,$E5,$E3,$E3,$E3,$E3,$E5,$21
	$99B3               .byte $02,$1B,$E3,$E4,$E3,$E5,$E3,$F2,$E3,$E5,$E3,$E3,$E2,$E3,$E3,$E2
	$99C3               .byte $E3,$E3,$E3,$E5,$E3,$E3,$E3,$E5,$E3,$F2,$E3,$E3,$E5,$21,$22,$1B
	$99D3               .byte $E6,$E3,$E3,$E7,$EB,$24,$E6,$E7,$E6,$E3,$E7,$E6,$E3,$E7,$E6,$E3
	$99E3               .byte $E3,$E7,$E6,$E3,$E3,$E7,$EB,$24,$E6,$E3,$E7,$21,$4C,$12,$E0,$E1
	$99F3               .byte $E1,$E2,$E0,$E2,$E0,$E1,$E1,$E2,$E8,$24,$E0,$E2,$E0,$E1,$E1,$E2
	$9A03               .byte $21,$6C,$12,$E3,$E3,$E3,$E7,$E3,$E5,$E3,$F5,$F6,$E7,$E3,$F3,$E3
	$9A13               .byte $E5,$E6,$E3,$E3,$E7,$21,$8C,$12,$E3,$E3,$EF,$24,$E3,$E5,$E3,$24
	$9A23               .byte $24,$24,$E3,$E3,$E3,$E5,$24,$E3,$E5,$24,$21,$AC,$12,$E3,$E3,$E1
	$9A33               .byte $EA,$E3,$E5,$E3,$E9,$E3,$E2,$E3,$E3,$E3,$E5,$24,$E3,$E5,$24,$21
	$9A43               .byte $CC,$12,$E3,$E3,$EF,$24,$E3,$E5,$E3,$F3,$E3,$E5,$E3,$F2,$E3,$E5
	$9A53               .byte $24,$E3,$E5,$24,$21,$EC,$12,$E6,$E7,$24,$24,$E6,$E7,$E6,$E7,$E6
	$9A63               .byte $E7,$EB,$24,$E6,$E7,$24,$E6,$E7,$24,$22,$48,$10,$0A,$24,$24,$01
	$9A73               .byte $25,$19,$15,$0A,$22,$0E,$1B,$24,$10,$0A,$16,$0E,$22,$88,$10,$0B
	$9A83               .byte $24,$24,$02,$25,$19,$15,$0A,$22,$0E,$1B,$24,$10,$0A,$16,$0E,$22
	$9A93               .byte $C8,$10,$0C,$24,$24,$0B,$0A,$15,$15,$18,$18,$17,$24,$24,$1D,$1B
	$9AA3               .byte $12,$19,$23,$49,$0E,$F4,$01,$09,$08,$04,$24,$17,$12,$17,$1D,$0E
	$9AB3               .byte $17,$0D,$18,$00,$20,$FA,$C0,$20,$05,$D9,$A9,$00,$85,$19,$20,$5B
	$9AC3               .byte $F4,$A5,$19,$F0,$1F,$20,$FE,$DA,$20,$5E,$E7,$AA,$29,$10,$D0,$13
	$9AD3               .byte $8A,$29,$20,$F0,$0B,$A9,$00,$85,$19,$A6,$3F,$BD,$FB,$DA,$85,$3F
	$9AE3               .byte $4C,$C1,$DA,$60,$E6,$3A,$E6,$40,$A9,$00,$8D,$15,$40,$85,$16,$20
	$9AF3               .byte $E8,$F1,$A9,$00,$85,$3A,$F0,$BC,$01,$02,$00,$A5,$3F,$4A,$85,$16
	$9B03               .byte $A5,$3F,$AA,$29,$01,$85,$40,$BD,$1D,$DB,$8D,$7B,$05,$A9,$2C,$8D
	$9B13               .byte $67,$05,$A2,$00,$8E,$5D,$05,$4C,$25,$CE,$8C,$9C,$AC,$40,$4F,$E8
	$9B23               .byte $62,$6D,$7E,$D7,$62,$8F,$F9,$C0,$62,$A3,$0D,$D7,$62,$DB,$DB,$DB
	$9B33               .byte $DB,$DB,$DB,$DB,$DB,$DB,$DB,$DB,$DB,$DB,$DC,$DB,$DB,$21,$DC,$2F
	$9B43               .byte $DD,$00,$00,$10,$06,$FF,$FF,$8C,$DF,$02,$70,$DE,$21,$DC,$2F,$DD
	$9B53               .byte $41,$DD,$00,$00,$18,$0C,$04,$0E,$FF,$FF,$96,$DF,$04,$7C,$DE,$C0
	$9B63               .byte $DC,$00,$00,$FF,$FF,$A6,$DF,$00,$90,$DE,$21,$DC,$54,$DD,$00,$00
	$9B73               .byte $08,$06,$18,$0A,$FF,$FF,$A7,$DF,$06,$94,$DE,$21,$DC,$73,$DD,$00
	$9B83               .byte $00,$04,$06,$12,$08,$FF,$FF,$B7,$DF,$07,$B0,$DE,$21,$DC,$99,$DD
	$9B93               .byte $00,$00,$06,$06,$14,$10,$FF,$0F,$0D,$01,$FF,$CA,$DF,$09,$D0,$DE
	$9BA3               .byte $21,$DC,$C4,$DD,$00,$00,$04,$06,$10,$0E,$FF,$08,$0E,$03,$0D,$09
	$9BB3               .byte $03,$12,$08,$03,$17,$0D,$03,$FF,$DD,$DF,$03,$F8,$DE,$21,$DC,$54
	$9BC3               .byte $DD,$00,$00,$10,$06,$1A,$0C,$FF,$08,$08,$01,$18,$04,$01,$FF,$A7
	$9BD3               .byte $DF,$06,$94,$DE,$21,$DC,$D1,$DD,$00,$00,$0E,$06,$0C,$14,$FF,$FF
	$9BE3               .byte $ED,$DF,$06,$08,$DF,$21,$DC,$F7,$DD,$00,$00,$04,$08,$16,$10,$FF
	$9BF3               .byte $FF,$FD,$DF,$09,$24,$DF,$21,$DC,$28,$DE,$00,$00,$04,$10,$18,$10
	$9C03               .byte $FF,$0E,$06,$01,$FF,$0D,$E0,$07,$4C,$DF,$21,$DC,$51,$DE,$00,$00
	$9C13               .byte $04,$08,$0E,$10,$FF,$10,$07,$01,$FF,$20,$E0,$07,$6C,$DF,$23,$40
	$9C23               .byte $88,$39,$38,$39,$38,$39,$38,$39,$33,$24,$24,$24,$24,$24,$24,$24
	$9C33               .byte $24,$24,$24,$24,$24,$24,$24,$24,$24,$30,$38,$39,$38,$39,$38,$39
	$9C43               .byte $38,$3C,$3B,$3C,$3B,$3C,$3B,$3C,$3D,$58,$59,$5A,$5B,$58,$59,$5A
	$9C53               .byte $5B,$58,$59,$5A,$5B,$58,$59,$5A,$5B,$3A,$3B,$3C,$3B,$3C,$3B,$3C
	$9C63               .byte $3B,$60,$61,$62,$63,$60,$61,$62,$63,$5C,$5D,$5E,$5F,$5C,$5D,$5E
	$9C73               .byte $5F,$5C,$5D,$5E,$5F,$5C,$5D,$5E,$5F,$60,$61,$62,$63,$60,$61,$62
	$9C83               .byte $63,$5C,$5D,$5E,$5F,$5C,$5D,$5E,$5F,$5C,$5D,$5E,$5F,$5C,$5D,$5E
	$9C93               .byte $5F,$5C,$5D,$5E,$5F,$5C,$5D,$5E,$5F,$5C,$5D,$5E,$5F,$5C,$5D,$5E
	$9CA3               .byte $5F,$40,$50,$50,$50,$50,$90,$A0,$A0,$23,$F0,$10,$00,$00,$A0,$A0
	$9CB3               .byte $A0,$A0,$00,$00,$0A,$0A,$0A,$0A,$0A,$0A,$0A,$0A,$00,$A3,$04,$04
	$9CC3               .byte $93,$94,$94,$94,$A3,$05,$04,$95,$96,$96,$96,$A2,$EA,$05,$93,$94
	$9CD3               .byte $94,$94,$94,$A2,$EB,$05,$95,$96,$96,$96,$96,$A3,$34,$03,$93,$94
	$9CE3               .byte $94,$A3,$35,$03,$95,$96,$96,$A3,$1A,$04,$93,$94,$94,$94,$A3,$1B
	$9CF3               .byte $04,$95,$96,$96,$96,$63,$80,$20,$97,$23,$A0,$20,$98,$99,$98,$99
	$9D03               .byte $98,$99,$98,$99,$98,$99,$98,$99,$98,$99,$98,$99,$98,$99,$98,$99
	$9D13               .byte $98,$99,$98,$99,$98,$99,$98,$99,$98,$99,$98,$99,$23,$C0,$08,$40
	$9D23               .byte $50,$50,$50,$50,$90,$A0,$A0,$63,$E8,$10,$FF,$00,$22,$49,$0E,$30
	$9D33               .byte $31,$32,$31,$32,$31,$32,$31,$32,$31,$32,$31,$32,$33,$00,$21,$57
	$9D43               .byte $06,$30,$31,$32,$31,$32,$33,$21,$65,$06,$30,$31,$32,$31,$32,$33
	$9D53               .byte $00,$21,$90,$03,$30,$31,$33,$22,$26,$03,$30,$31,$33,$22,$57,$03
	$9D63               .byte $30,$31,$33,$22,$6C,$03,$30,$31,$33,$22,$F2,$03,$30,$31,$33,$00
	$9D73               .byte $20,$CB,$03,$30,$31,$33,$A1,$6D,$03,$3E,$3F,$40,$A1,$59,$04,$3E
	$9D83               .byte $3F,$3F,$40,$A1,$A5,$03,$3E,$3F,$40,$22,$AA,$03,$30,$31,$33,$22
	$9D93               .byte $B3,$03,$30,$31,$33,$00,$20,$E2,$02,$30,$33,$20,$FB,$02,$30,$33
	$9DA3               .byte $21,$57,$02,$30,$33,$21,$93,$02,$30,$33,$22,$0B,$02,$30,$33,$22
	$9DB3               .byte $47,$02,$30,$33,$22,$83,$02,$30,$33,$22,$CF,$04,$30,$31,$32,$33
	$9DC3               .byte $00,$22,$CA,$03,$30,$31,$33,$22,$D2,$03,$30,$31,$33,$00,$21,$08
	$9DD3               .byte $04,$30,$31,$32,$33,$21,$14,$04,$30,$31,$32,$33,$A1,$A5,$04,$3E
	$9DE3               .byte $3F,$3F,$40,$A1,$BA,$04,$3E,$3F,$3F,$40,$22,$6C,$06,$30,$31,$32
	$9DF3               .byte $31,$32,$33,$00,$22,$EE,$04,$30,$31,$32,$33,$20,$F9,$03,$30,$31
	$9E03               .byte $33,$A1,$1A,$03,$3F,$3F,$40,$21,$90,$03,$30,$31,$33,$A1,$B1,$03
	$9E13               .byte $3F,$3F,$40,$22,$28,$03,$30,$31,$33,$A2,$49,$03,$3F,$3F,$40,$20
	$9E23               .byte $EA
DataTableEntry_1E24
	$9E24               .byte $02,$30,$33,$00,$A2,$6C,$03,$3E,$3F,$40,$A2,$73,$03,$3E,$3F,$40
	$9E34               .byte $20,$E4,$04,$30,$31,$32,$33,$20,$F8,$04,$30,$31,$32,$33,$21,$A8
	$9E44               .byte $04,$30,$31,$32,$33,$21,$B5,$04,$30,$31,$32,$33,$00,$22,$64,$02
	$9E54               .byte $30,$33,$22,$08,$02,$30,$33,$21,$AC,$02,$30,$33,$21,$B4,$02,$30
	$9E64               .byte $33,$22,$18,$02,$30,$33,$22,$7C,$02,$30,$33,$00,$10,$C8,$48,$38
	$9E74               .byte $FF,$B8,$CF,$CF,$8F,$E0,$E0,$98,$10,$C4,$48,$B8,$28,$3C,$FF,$B8
	$9E84               .byte $E8,$58,$CF,$CF,$8F,$4F,$57,$E0,$E0,$98,$58,$60,$10,$FF,$DF,$EC
	$9E94               .byte $10,$C8,$80,$30,$B8,$60,$90,$38,$FF,$98,$48,$D0,$78,$A8,$CF,$CF
	$9EA4               .byte $5F,$87,$8F,$97,$B7,$E0,$E0,$68,$90,$98,$A0,$C0,$10,$C8,$58,$68
	$9EB4               .byte $C8,$28,$50,$98,$38,$FF,$70,$78,$D0,$30,$68,$B0,$CF,$CF,$2F,$57
	$9EC4               .byte $4F,$67,$A7,$A7,$E0,$E0,$38,$6C,$6C,$7C,$B0,$B0,$10,$C8,$12,$DA
	$9ED4               .byte $BA,$9A,$5A,$3A,$1A,$7A,$38,$FF,$1E,$E6,$C6,$A6,$66,$46,$26,$96
	$9EE4               .byte $CF,$CF,$37,$37,$4F,$5F,$7F,$8F,$9F,$AF,$E0,$E0,$40,$40,$58,$68
	$9EF4               .byte $88,$98,$A8,$B8,$10,$C8,$52,$92,$38,$FF,$66,$A6,$CF,$CF,$AF,$AF
	$9F04               .byte $E0,$E0,$B8,$B8,$10,$C8,$40,$A0,$28,$D0,$60,$38,$FF,$60,$C0,$30
	$9F14               .byte $D8,$90,$CF,$CF,$3F,$3F,$67,$67,$97,$E0,$E0,$48,$48,$88,$88,$A0
DataTableEntry_1F24
	$9F24               .byte $10,$C8,$50,$C8,$88,$40,$70,$D0,$88,$48,$38,$FF,$60,$E0,$98,$58
	$9F34               .byte $90,$D8,$90,$50,$CF,$CF,$37,$37,$5F,$87,$B7,$3C,$64,$8C,$E0,$E0
	$9F44               .byte $40,$40,$68,$90,$C0,$60,$80,$A8,$10,$C8,$20,$C0,$40,$A8,$60,$98
	$9F54               .byte $38,$FF,$40,$E0,$60,$C8,$68,$A0,$CF,$CF,$37,$37,$67,$67,$97,$97
	$9F64               .byte $E0,$E0,$40,$40,$70,$70,$B0,$B0,$10,$C8,$20,$40,$60,$A0,$C0,$E0
	$9F74               .byte $38,$FF,$30,$50,$70,$B0,$D0,$F0,$CF,$CF,$97,$7F,$67,$67,$7F,$97
	$9F84               .byte $E0,$E0,$A0,$88,$70,$70,$88,$A0,$03,$58,$78,$04,$78,$78,$04,$98
	$9F94               .byte $78,$04,$05,$C8,$38,$05,$38,$40,$05,$58,$78,$04,$78,$78,$04,$98
	$9FA4               .byte $78,$04,$00,$05,$94,$A0,$06,$84,$48,$05,$34,$70,$04,$64,$80,$04
	$9FB4               .byte $BC,$78,$04,$06,$5C,$18,$06,$24,$50,$05,$64,$40,$05,$C4,$38,$05
	$9FC4               .byte $54,$90,$04,$9C,$90,$04,$06,$10,$20,$06,$D8,$20,$06,$B8,$38,$05
	$9FD4               .byte $98,$48,$05,$58,$68,$05,$38,$78,$04,$05,$54,$98,$05,$94,$98,$05
	$9FE4               .byte $6C,$39,$06,$94,$31,$06,$BC,$59,$06,$05,$50,$28,$06,$A8,$28,$06
	$9FF4               .byte $24,$50,$06,$CC,$50,$06,$70,$80,$04,$05,$50,$20,$06,$C8,$20,$06
	$A004               .byte $84,$48,$05,$44,$70,$05,$78,$A0,$04,$06,$28,$20,$06,$C8,$20,$06
	$A014               .byte $48,$50,$05,$B0,$50,$05,$5C,$80,$04,$94,$80,$04,$06,$20,$80,$04
DataTableEntry_2024
	$A024               .byte $40,$68,$05,$60,$50,$06,$A0,$50,$06,$C0,$68,$05,$E0,$80,$04,$08
	$A034               .byte $08,$F0,$08,$08,$00,$00,$00,$00,$08,$08,$08,$00,$00,$01,$08,$08
	$A044               .byte $09,$00,$00,$FF,$08,$08,$07,$FE,$00,$00,$06,$08,$08,$02,$00,$00
	$A054               .byte $0A,$08,$08,$02,$00,$01,$0A,$08,$09,$04,$00,$00,$0C,$08,$08,$00
	$A064               .byte $00,$FE,$08,$08,$06,$FD,$FD,$FD,$05,$05,$05,$08,$08,$08,$00,$00
	$A074               .byte $00,$08,$08,$07,$00,$00,$FF,$08,$08,$09,$00,$00,$01,$0A,$08,$08
	$A084               .byte $02,$00,$00,$06,$08,$08,$FE,$00,$00,$06,$08,$07,$FE,$00,$FF,$04
	$A094               .byte $08,$08,$FC,$00,$00,$08,$08,$0A,$00,$00,$02,$0B,$0B,$0B,$03,$03
	$A0A4               .byte $03,$00,$00,$01,$02,$03,$04,$05,$00,$00,$01,$02,$03,$06,$07,$00
	$A0B4               .byte $00,$01,$02,$03,$06,$08,$00,$09,$0A,$02,$0B,$0C,$05,$00,$00,$01
	$A0C4               .byte $02,$03,$04,$05,$00,$00,$01,$02,$0D,$0E,$05,$00,$1A,$1B,$1C,$1D
	$A0D4               .byte $1E,$1F,$01,$1A,$1B,$20,$1D,$1E,$FC,$00,$1A,$21,$22,$1D,$23,$24
	$A0E4               .byte $00,$00,$38,$35,$0D,$39,$37,$00,$00,$34,$35,$03,$36,$37,$00,$09
	$A0F4               .byte $3A,$35,$0B,$3B,$37,$00,$CE,$CF,$D0,$D1,$D2,$D3,$00,$25,$26,$27
	$A104               .byte $28,$29,$2A,$01,$28,$29,$2C,$25,$26,$2B,$00,$4C,$CC,$02,$4D,$CD
	$A114               .byte $05,$00,$4C,$2F,$22,$4D,$30,$24,$07,$4C,$2F,$35,$4D,$30,$37,$02
	$A124               .byte $4C,$2F,$27,$4D,$30,$2A,$07,$4C,$2F,$2B,$4D,$30,$2C,$00,$0F,$10
	$A134               .byte $02,$11,$12,$05,$00,$0F,$10,$02,$11,$19,$07,$00,$0F,$10,$02,$11
	$A144               .byte $19,$08,$00,$13,$14,$02,$15,$16,$05,$00,$0F,$10,$02,$11,$12,$05
	$A154               .byte $03,$13,$17,$02,$15,$18,$05,$04,$13,$2D,$1C,$15,$2E,$1F,$05,$13
	$A164               .byte $2D,$20,$15,$2E,$FC,$04,$13,$2F,$22,$15,$30,$24,$00,$13,$3C,$35
	$A174               .byte $15,$3D,$37,$00,$0F,$40,$35,$11,$41,$37,$03,$13,$3E,$35,$15,$3F
	$A184               .byte $37,$00,$D4,$D5,$D0,$D6,$D7,$D3,$00,$25,$31,$27,$32,$33,$2A,$02
	$A194               .byte $25,$31,$27,$32,$33,$2A,$00,$FC,$48,$42,$FC,$49,$43,$00,$FC,$48
	$A1A4               .byte $44,$FC,$49,$45,$00,$FC,$4A,$46,$FC,$4B,$47,$00,$FC,$A4,$A5,$FC
	$A1B4               .byte $A6,$A7,$08,$FC,$71,$FC,$FC,$72,$73,$08,$FC,$74,$FC,$FC,$75,$76
	$A1C4               .byte $08,$FC,$71,$77,$FC,$72,$73,$08,$FC,$74,$77,$FC,$75,$76,$08,$FC
	$A1D4               .byte $71,$78,$FC,$72,$73,$08,$FC,$74,$78,$FC,$75,$76,$08,$FC,$71,$79
	$A1E4               .byte $FC,$72,$73,$08,$FC,$74,$79,$FC,$75,$76,$00,$4E,$4F,$50,$51,$52
	$A1F4               .byte $53,$00,$4E,$4F,$50,$51,$5E,$58,$00,$4E,$4F,$50,$51,$5E,$5D,$00
	$A204               .byte $54,$55,$50,$56,$57,$53,$00,$4E,$4F,$50,$51,$52,$53,$00,$59,$5A
	$A214               .byte $50,$5B,$5C,$53,$00,$FC,$5F,$60,$FC,$61,$62,$06,$63,$64,$60,$FC
	$A224               .byte $65,$62,$00,$66,$67,$60,$68,$69,$62,$00,$6A,$67,$60,$6B,$69,$62
	$A234               .byte $00,$FC,$6C,$6D,$FC,$6E,$6F,$00,$FC,$6C,$6D,$FC,$6E,$70,$A5,$AC
	$A244               .byte $B3,$AC,$BA,$C1,$C8,$C1,$CF,$D6,$DD,$D6,$E4,$EB,$F2,$EB,$00,$00
	$A254               .byte $00,$00,$07,$07,$07,$07,$0E,$0E,$0E,$0E,$15,$15,$15,$15,$1C,$1C
	$A264               .byte $1C,$1C,$23,$23,$23,$23,$2A,$2A,$2A,$2A,$31,$38,$3F,$38,$46,$4D
	$A274               .byte $54,$4D,$5B,$62,$69,$62,$70,$77,$7E,$77,$8C,$8C,$8C,$8C,$93,$93
	$A284               .byte $93,$93,$9A,$A1,$A8,$A1,$AF,$9A,$AF,$9A,$E0,$E0,$E0,$E0,$E0,$E0
	$A294               .byte $E0,$E0,$E0,$E0,$E0,$E0,$E0,$E0,$E0,$E0,$E1,$E1,$E1
DataTableEntry_22A1
	$A2A1               .byte $E1,$E1,$E1,$E1,$E1,$E1,$E1,$E1,$E1,$E1,$E1,$E1,$E1,$E1,$E1,$E1
	$A2B1               .byte $E1,$E1,$E1,$E1,$E1,$E1,$E1,$E1,$E1,$E1,$E1,$E1,$E1,$E1,$E1,$E1
	$A2C1               .byte $E1,$E1,$E1,$E1,$E1,$E1,$E1,$E1,$E1,$E1,$E1,$E1,$E1,$E1,$E1,$E1
	$A2D1               .byte $E1,$E1,$E1,$E1,$E1,$E1,$E1,$E1,$E1,$77,$77,$85,$77,$EB,$EB,$F9
	$A2E1               .byte $EB,$E1,$E1,$E1,$E1,$E0,$E0,$E0,$E0,$EE,$F5,$FC,$F5,$03,$0A,$11
	$A2F1               .byte $0A,$34,$34,$18,$1F,$26,$26,$26,$26,$B6,$B6,$B6,$B6,$B6,$BD,$B6
	$A301               .byte $BD,$C4,$CB,$C4,$CB,$D2,$D9,$D2,$D9,$E0,$E7,$E0,$E7,$34,$3B,$34
	$A311               .byte $3B,$2D,$2D,$2D,$2D,$E1,$E1,$E1,$E1,$E2,$E2,$E2,$E2,$E2,$E2,$E2
	$A321               .byte $E2,$E2,$E2,$E2,$E2,$E1,$E1,$E1,$E1,$E1,$E1,$E1,$E1,$E1,$E1,$E1
	$A331               .byte $E1,$E1,$E1,$E1,$E1,$E1,$E1,$E1,$E1,$E2,$E2,$E2,$E2,$E2,$E2,$E2
	$A341               .byte $E2,$44,$2C,$00,$00,$00,$04,$24,$08,$00,$00,$FC,$FC,$FE,$FC,$00
	$A351               .byte $7B,$FC,$FC,$7C,$FC,$FC,$00,$7D,$7E,$FC,$7F,$80,$FC,$00,$81,$82
	$A361               .byte $83,$84,$85,$86,$00,$87,$88,$FC,$89,$8A,$FC,$00,$8B,$8C,$FC,$8D
	$A371               .byte $8E,$FC,$00,$8F,$90,$FC,$FC,$FC,$FC,$4B,$50,$57,$5E,$65,$6C,$73
	$A381               .byte $E3,$E3,$E3,$E3,$E3,$E3,$E3,$20,$38,$50,$68,$80,$98,$B0,$C8,$08
	$A391               .byte $20,$38,$C8,$B0,$98,$80,$68,$50,$08,$BD,$88,$E3,$85,$1F,$A5,$19
	$A3A1               .byte $4A,$90,$05,$BD,$91,$E3,$85,$1F,$A9,$02,$85,$20,$B5,$88,$10,$14
	$A3B1               .byte $C9,$FF,$F0,$03,$4C,$CB,$E4,$A0,$14,$A9,$F0,$91,$1F,$88,$88,$88
	$A3C1               .byte $88,$10,$F6,$60,$E0,$08,$F0,$48,$B5,$7F,$0A,$0A,$7D,$36,$04,$E0
	$A3D1               .byte $02,$B0,$2A,$B4,$88,$79,$42,$E3,$A8,$B9,$42,$E2,$85,$1D,$B9,$8E
	$A3E1               .byte $E2,$85,$1E,$B5,$BD,$F0,$37,$B4,$88,$B9,$45,$E3,$7D,$36,$04,$A8
	$A3F1               .byte $B9,$DA,$E2,$85,$1D,$B9,$E2,$E2,$85,$1E,$4C,$1F,$E4,$B4,$88,$18
	$A401               .byte $79,$48,$E3,$A8,$B9,$EA,$E2,$85,$1D,$B9,$16,$E3,$85,$1E,$D0,$0E
	$A411               .byte $B4,$7F,$30,$A3,$B9,$7A,$E3,$85,$1D,$B9,$81,$E3,$85,$1E,$B5,$91
	$A421               .byte $85,$15,$B5,$9A,$85,$12,$8A,$F0,$10,$E0,$01,$D0,$04,$A9,$01,$D0
	$A431               .byte $08,$BD,$51,$04,$18,$69,$02,$29,$03,$BC,$48,$04,$F0,$02,$09,$40
	$A441               .byte $B4,$88,$C0,$02,$D0,$08,$B4,$7F,$C0,$05,$D0,$02,$49,$40,$B4,$9A
	$A451               .byte $C0,$C9,$B0,$04,$E0,$09,$D0,$02,$09,$20,$85,$14,$A9,$39,$85,$21
	$A461               .byte $A9,$E0,$85,$22,$BD,$48,$04,$F0,$08,$A9,$6F,$85,$21,$A9,$E0,$85
	$A471               .byte $22,$A0,$00,$B1,$1D,$E6,$1D,$D0,$02,$E6,$1E,$0A,$85,$13,$0A,$65
	$A481               .byte $13,$65,$21,$85,$21,$90,$02,$E6,$22,$8A,$48,$A2,$05,$A0,$00,$A5
	$A491               .byte $12,$18,$7D,$33,$E0,$91,$1F,$85,$12,$C8,$84,$13,$A0,$00,$B1,$1D
	$A4A1               .byte $E6,$1D
DataTableEntry_24A3
	$A4A3               .byte $D0,$02,$E6,$1E,$A4,$13,$91,$1F,$C8,$A5,$14,$91,$1F,$C8,$84,$13
	$A4B3               .byte $A0,$00,$A5,$15,$18,$71,$21,$E6,$21,$D0,$02,$E6,$22,$A4,$13,$91
	$A4C3               .byte $1F,$C8,$CA,$10,$C8,$68,$AA,$60,$8A,$48,$A4,$1F,$B5,$9A,$99,$00
	$A4D3               .byte $02,$99,$04,$02,$18,$69,$08,$99,$08,$02,$99,$0C,$02,$A9,$F0,$99
	$A4E3               .byte $10,$02,$99,$14,$02,$B5,$91,$99,$03,$02,$99,$0B,$02,$18,$69,$08
	$A4F3               .byte $99,$07,$02,$99,$0F,$02,$B5,$9A,$C9,$D0,$A9,$03,$90,$02,$A9,$23
	$A503               .byte $99,$02,$02,$B5,$7F,$D0,$3F,$B9,$02,$02,$99,$06,$02,$99,$0A,$02
	$A513               .byte $99,$0E,$02,$A9,$DA,$99,$01,$02,$A9,$DB,$99,$05,$02,$A9,$DC,$99
	$A523               .byte $09,$02,$A9,$DD,$99,$0D,$02,$A6,$1F,$A5,$19,$29,$20,$F0,$14,$A5
	$A533               .byte $19,$29,$40,$D0,$08,$FE,$00,$02,$FE,$04,$02,$D0,$06,$FE,$03,$02
	$A543               .byte $FE,$0B,$02,$68,$AA,$60,$B9,$02,$02,$09,$40,$99,$06,$02,$09,$80
	$A553               .byte $99,$0E,$02,$29,$BF,$99,$0A,$02,$A9,$DE,$99,$01,$02,$99,$05,$02
	$A563               .byte $99,$09,$02,$99,$0D,$02,$DE,$5A,$04,$10,$0C,$A9,$FF,$95,$88,$A9
	$A573               .byte $F0,$95,$9A,$A9,$04,$85,$F1,$68,$AA,$60,$A6,$BB,$30,$39,$BD,$BB
	$A583               .byte $E5,$85,$1D,$BD,$C0,$E5,$85,$1E,$A0,$00,$A2,$00,$B1,$1D,$9D,$E0
	$A593               .byte $02,$C8,$E8,$C9,$F0,$D0,$03,$E8,$E8,$E8,$E0,$10,$D0,$EE,$A0,$0F
	$A5A3               .byte $B9,$E0,$02,$18,$65,$BC,$99,$E0,$02,$88,$88,$88,$88,$10,$F1,$A5
	$A5B3               .byte $19,$29,$03,$D0,$02,$C6,$BB,$60,$F3,$E3,$D6,$CC,$C5,$E5,$E5,$E5
	$A5C3               .byte $E5,$E5,$D0,$AE,$03,$04,$F0,$F0,$F0,$C8,$AF,$03,$04,$D0,$B0,$03
	$A5D3               .byte $04,$F0,$F0,$C8,$B1,$03,$FC,$C8,$B2,$03,$04,$D0,$B3,$03,$04,$F0
	$A5E3               .byte $C8,$B4,$03,$00,$C8,$B4,$43,$08,$D0,$B5,$03,$00,$D0,$B5,$43,$08
	$A5F3               .byte $F0,$F0,$F0,$F0,$04,$04,$05,$06,$03,$03,$03,$06,$0A,$0A,$0A,$0A
	$A603               .byte $28,$32,$46,$78,$00,$00,$00,$64,$00,$00,$00,$00,$0A,$1E,$32,$70
	$A613               .byte $00,$00,$00,$70,$00,$00,$00,$00,$14,$3C,$64,$A0,$00,$00,$00,$A0
	$A623               .byte $00
DataTableEntry_2624
	$A624               .byte $00,$00,$00,$70,$B0,$E0,$40,$80,$80,$80,$40,$00,$00,$00,$00,$00
	$A634               .byte $00,$00,$01,$00,$00,$00,$01,$00,$00,$00,$00,$90,$50,$20,$C0,$80
	$A644               .byte $80,$80,$C0,$00,$00,$00,$00,$FF,$FF,$FF,$FE,$FF,$FF,$FF,$FE,$00
	$A654               .byte $00,$00,$00,$50,$90,$C0,$40,$40,$40,$40,$40,$00,$00,$00,$00,$00
	$A664               .byte $00,$00,$01,$00,$00,$00,$01,$02,$02,$02,$02,$B0,$70,$40,$C0,$C0
	$A674               .byte $C0,$C0,$C0,$C0,$C0,$C0,$C0,$FF,$FF,$FF,$FE,$FF,$FF,$FF,$FE,$FE
	$A684               .byte $01,$FE,$FE,$20,$1B,$EE,$A2,$07,$B5,$88,$10,$0A,$C9,$FF,$F0,$44
	$A694               .byte $20,$B0,$EC,$4C,$D8,$E6,$E0,$02,$90,$10,$C9,$01,$D0,$0C,$B5,$7F
	$A6A4               .byte $C9,$02,$B0,$06,$A5,$F1,$09,$20,$85,$F1,$DE,$3F,$04,$D0,$1C,$A9
	$A6B4               .byte $03,$9D,$3F,$04,$E0,$02,$B0,$08,$D6,$BF,$D0,$04,$A9,$00,$95,$BD
	$A6C4               .byte $20,$0E,$EA,$86,$3E,$20,$BA,$EB,$20,$8C,$E7,$20,$4E,$EA,$20,$1E
	$A6D4               .byte $ED,$20,$79,$E9,$20,$9A,$E3,$CA,$10,$AE,$60,$E0,$02,$B0,$18,$A5
	$A6E4               .byte $19,$29,$0F,$D0,$05,$20,$A9,$F1,$95,$31,$A5,$3A,$D0,$09,$20,$60
	$A6F4               .byte $E7,$BD,$1C,$06,$95,$31,$60,$B5,$9A,$C9,$A0,$90,$07,$B5,$31,$09
	$A704               .byte $40,$95,$31,$60,$DE,$5A,$04,$D0,$ED,$20,$A9,$F1,$BC,$51,$04,$39
	$A714               .byte $58,$E7,$79,$5B,$E7,$9D,$5A,$04,$86,$12,$A5,$19,$2A,$2A,$45,$12
	$A724               .byte $29,$01,$A8,$B9,$88,$00,$30,$13,$B9,$BD,$00,$D0,$0E,$A9,$00,$95
	$A734               .byte $31,$B9,$9A,$00,$38,$E9,$04,$D5,$9A,$B0,$04,$A9,$40,$95,$31,$B5
	$A744               .byte $91,$D9,$91,$00,$B0,$07,$B5,$31,$09,$01,$95,$31,$60,$B5,$31,$09
	$A754               .byte $02,$95,$31,$60,$1F,$0F,$07,$20,$10,$08,$A2,$00,$A9,$01,$8D,$16
	$A764               .byte $40,$A9,$00,$8D,$16,$40,$A0,$07,$BD,$16,$40,$85,$12,$4A,$05,$12
	$A774               .byte $4A,$3E,$1C,$06,$88,$10,$F1,$BC,$1E,$06,$BD,$1C,$06,$9D,$1E,$06
	$A784               .byte $98,$5D,$1C,$06,$3D,$1C,$06,$60,$B5,$88,$D0,$09,$A9,$00,$9D,$24
	$A794               .byte $04,$9D,$2D,$04,$60,$C9,$02,$F0,$41,$E0,$02,$90,$3D,$B5,$7F,$C9
	$A7A4               .byte $02,$B0,$E9,$BD,$24,$04,$85,$12,$BD,$2D,$04,$85,$13,$20,$9C,$F1
	$A7B4               .byte $BD,$63,$04,$18,$65,$12,$9D,$63,$04,$85,$12,$BD,$6C,$04,$65,$13
	$A7C4               .byte $9D,$6C,$04,$85,$13,$20,$9C,$F1,$BD,$24,$04,$38,$E5,$12,$9D,$24
	$A7D4               .byte $04,$BD,$2D,$04,$E5,$13,$9D,$2D,$04,$60,$B5,$7F,$C9,$06,$90,$01
	$A7E4               .byte $60,$B5,$7F,$C9,$04,$D0,$1C,$B5,$31,$29,$02,$F0,$07,$BD,$48,$04
	$A7F4               .byte $F0,$11,$D0,$0B,$B5,$31,$29,$01,$F0,$09,$BD,$48,$04,$D0,$04,$A9
	$A804               .byte $05,$95,$7F,$B5,$7F,$C9,$02,$D0,$1B,$B5,$31,$29,$02,$F0,$04,$A9
	$A814               .byte $00,$F0,$08,$B5,$31,$29,$01,$F0,$07,$A9,$01,$DD,$48,$04,$F0,$04
	$A824               .byte $A9,$04,$95,$7F,$B5,$7F,$C9,$04,$90,$1C,$B5,$31,$29,$02,$F0,$07
	$A834               .byte $BD,$48,$04,$D0,$11,$F0,$0B,$B5,$31,$29,$01,$F0,$09,$BD,$48,$04
	$A844               .byte $F0,$04,$A9,$02,$95,$7F,$B5,$7F,$C9,$03,$D0,$0A,$B5,$31,$29,$03
	$A854               .byte $F0,$04,$A9,$02,$95,$7F,$B5,$7F,$C9,$04,$B0,$15,$B5,$31,$29,$02
	$A864               .byte $F0,$04,$A9,$00,$F0,$08,$B5,$31,$29,$01,$F0,$05,$A9,$01,$9D,$48
	$A874               .byte $04,$B5,$7F,$C9,$04,$90,$33,$BD,$36,$04,$C9,$01,$D0,$2C,$BC,$51
	$A884               .byte $04,$BD,$48,$04,$F0,$12,$BD,$24,$04,$38,$F9,$1B,$E6,$9D,$24,$04
	$A894               .byte $BD,$2D,$04,$E9,$00,$4C,$F7,$E8,$BD,$24,$04,$18,$79,$1B,$E6,$9D
	$A8A4               .byte $24,$04,$BD,$2D,$04,$69,$00,$4C,$F7,$E8,$B5,$7F,$F0,$0B,$C9,$02
	$A8B4               .byte $F0,$47,$C9,$03,$F0,$03,$4C,$47,$E9,$BD,$36,$04,$C9,$01,$F0,$03
	$A8C4               .byte $4C,$47,$E9,$BC,$51,$04,$B5,$31,$29,$02,$F0,$12,$BD,$24,$04,$38
	$A8D4               .byte $F9,$0F,$E6,$9D,$24,$04,$BD,$2D,$04,$E9,$00,$4C,$F7,$E8,$B5,$31
	$A8E4               .byte $29,$01,$F0,$5F,$BD,$24,$04,$18,$79,$0F,$E6,$9D,$24,$04,$BD,$2D
	$A8F4               .byte $04,$69,$00,$9D,$2D,$04,$4C,$47,$E9,$BD,$36,$04,$C9,$01,$D0,$43
	$A904               .byte $BC,$51,$04,$B5,$31,$29,$02,$F0,$12,$BD,$24,$04,$38,$F9,$1B,$E6
	$A914               .byte $9D,$24,$04,$BD,$2D,$04,$E9,$00,$4C,$34,$E9,$B5,$31,$29,$01,$F0
	$A924               .byte $22,$BD,$24,$04,$18,$79,$1B,$E6,$9D,$24,$04,$BD,$2D,$04,$69,$00
	$A934               .byte $9D,$2D,$04,$B5,$31,$29,$03,$F0,$0A,$E0,$02,$B0,$06,$A5,$F0,$09
	$A944               .byte $08,$85,$F0,$B5,$7F,$C9,$04,$90,$2B,$BD,$48,$04,$D0,$07,$BD,$2D
	$A954               .byte $04,$30,$21,$10,$05,$BD,$2D,$04,$10,$1A,$B5,$7F,$C9,$05,$D0,$08
	$A964               .byte $BD,$48,$04,$49,$01,$9D,$48,$04,$A9,$03,$95,$7F,$A9,$00,$9D,$24
	$A974               .byte $04,$9D,$2D,$04,$60,$A5,$CB,$D0,$2F,$B5,$BD,$F0,$0F,$AD,$88,$04
	$A984               .byte $F0,$0A,$38,$F5,$91,$20,$84,$F0,$C9,$05,$90,$1C,$E0,$02,$90,$06
	$A994               .byte $B5,$88,$C9,$02,$D0,$4E,$B5,$7F,$C9,$02,$90,$48,$C9,$06,$B0,$44
	$A9A4               .byte $A9,$01,$95,$7F,$9D,$5A,$04,$60,$A9,$00,$9D,$12,$04,$9D,$1B,$04
	$A9B4               .byte $9D,$09,$04,$85,$CB,$E0,$02,$90,$36,$B5,$88,$C9,$02,$F0,$26,$C9
	$A9C4               .byte $01,$D0,$21,$B5,$7F,$C9,$02,$B0,$1B,$A9,$02,$95,$7F,$A5,$C6,$9D
	$A9D4               .byte $3F,$04,$A9,$00,$9D,$24,$04,$9D,$2D,$04,$9D,$63,$04,$9D,$6C,$04
	$A9E4               .byte $A9,$40,$85,$F1,$60,$A9,$00,$95,$7F,$A9,$01,$9D,$5A,$04,$60,$B5
	$A9F4               .byte $7F,$C9,$01,$D0,$14,$C9,$06,$B0,$10,$BD,$24,$04,$1D,$2D,$04,$D0
	$AA04               .byte $04,$A9,$03,$D0,$02,$A9,$02,$95,$7F,$60,$E0,$02,$B0,$10,$B5,$BD
	$AA14               .byte $D0,$24,$B5,$7F,$C9,$01,$F0,$18,$C9,$03,$D0,$1A,$F0,$12,$B5,$7F
	$AA24               .byte $C9,$01,$F0,$0C,$C9,$03,$90,$0E,$A5,$19,$29,$03,$D0,$0B,$F0,$06
	$AA34               .byte $A5,$19,$29,$07,$D0,$03,$FE,$36,$04,$BD,$36,$04,$29,$03,$9D,$36
	$AA44               .byte $04,$D0,$06,$B5,$7F,$D0,$02,$F6,$7F,$60,$BD,$75,$04,$F0,$03,$DE
	$AA54               .byte $75,$04,$E0,$02,$B0,$28,$B5,$C1,$F0,$24,$A5,$19,$4A,$90,$1E,$FE
	$AA64               .byte $36,$04,$BD,$36,$04,$29,$03,$9D,$36,$04,$A9,$01,$95,$7F,$DE,$5A
	$AA74               .byte $04,$D0,$0A,$A9,$00,$95,$C1,$95,$7F,$A9,$20,$85,$F0,$60,$BD,$12
	$AA84               .byte $04,$18,$BC,$51,$04,$79,$F7,$E5,$9D,$12,$04,$90,$03,$FE,$1B,$04
	$AA94               .byte $BD,$1B,$04,$30,$1E,$D9,$63,$E6,$90,$34,$D0,$08,$BD,$12,$04,$D9
	$AAA4               .byte $57,$E6,$90,$2A,$B9,$57,$E6,$9D,$12,$04,$B9,$63,$E6,$9D,$1B,$04
	$AAB4               .byte $4C,$D2,$EA,$D9,$7B,$E6,$90,$0A,$D0,$14,$BD,$12,$04,$D9,$6F,$E6
	$AAC4               .byte $B0,$0C,$B9,$6F,$E6,$9D,$12,$04,$B9,$7B,$E6,$9D,$1B,$04,$20,$96
	$AAD4               .byte $EB,$C9,$F8,$B0,$2A,$C9,$E8,$90,$26,$A9,$FF,$95,$88,$A9,$04,$85
	$AAE4               .byte $BB,$B5,$91,$85,$BC,$E0,$02,$90,$0E,$A9,$80,$95,$88,$A9,$00,$95
	$AAF4               .byte $7F,$A9,$01,$85,$F3,$D0,$08,$A5,$C8,$D0,$04,$A9,$40,$85,$F0,$BD
	$AB04               .byte $2D,$04,$30,$1E,$D9,$33,$E6,$90,$34,$D0,$08,$BD,$24,$04,$D9,$27
	$AB14               .byte $E6,$90,$2A,$B9,$27,$E6,$9D,$24,$04,$B9,$33,$E6,$9D,$2D,$04,$4C
	$AB24               .byte $41,$EB,$D9,$4B,$E6,$90,$0A,$D0,$14,$BD,$24,$04,$D9,$3F,$E6,$B0
	$AB34               .byte $0C,$B9,$3F,$E6,$9D,$24,$04,$B9,$4B,$E6,$9D,$2D,$04,$20,$84,$EB
	$AB44               .byte $A5,$16,$F0,$10,$B5,$91,$C9,$10,$B0,$02,$A9,$10,$C9,$E0,$90,$02
	$AB54               .byte $A9,$E0,$95,$91,$A5,$C8,$F0,$27,$B5,$88,$D0,$23,$B5,$9A,$C9,$C8
	$AB64               .byte $90,$1D,$A9,$C7,$95,$9A,$BD,$51,$04,$C9,$0B,$D0,$09,$DE,$51,$04
	$AB74               .byte $20,$FD,$F0,$4C,$82,$F1,$A9,$02,$95,$88,$A9,$03,$9D,$51,$04,$60
	$AB84               .byte $BD,$00,$04,$18,$7D,$24,$04,$9D,$00,$04,$B5,$91,$7D,$2D,$04,$95
	$AB94               .byte $91,$60,$BD,$09,$04,$18,$7D,$12,$04,$9D,$09,$04,$B5,$9A,$7D,$1B
	$ABA4               .byte $04,$95,$9A,$60,$20,$AA,$F0,$20,$84,$EB,$4C,$AA,$F0,$20,$AA,$F0
	$ABB4               .byte $20,$96,$EB,$4C,$AA,$F0,$E0,$02,$B0,$1B,$B5,$88,$D0,$0A,$BD,$36
	$ABC4               .byte $04,$D0,$05,$A9,$00,$95,$7F,$60,$B5,$7F,$C9,$06,$90,$5C,$A9,$01
	$ABD4               .byte $95,$7F,$D6,$88,$60,$B5,$88,$C9,$02,$F0,$4F,$BD,$36,$04,$D0,$0F
	$ABE4               .byte $B5,$88,$D0,$05,$A9,$00,$95,$7F,$60,$B5,$7F,$D0,$03,$F6,$7F,$60
	$ABF4               .byte $C9,$02,$90,$FB,$DE,$5A,$04,$D0,$30,$A5,$C7,$9D,$5A,$04,$F6,$7F
	$AC04               .byte $B5,$7F,$C9,$07,$90,$23,$A9,$02,$95,$88,$A9,$00,$95,$7F,$BC,$51
	$AC14               .byte $04,$B9,$A4,$EC,$BC,$7E,$04,$D0,$08,$DE,$7E,$04,$BD,$51,$04,$29
	$AC24               .byte $03,$9D,$51,$04,$A9,$FE,$9D,$1B,$04,$60,$20,$DF,$E6,$B5,$31,$29
	$AC34               .byte $C3,$F0,$08,$E0,$02,$B0,$04,$A9,$00,$95,$BD,$B5,$31,$29,$40,$D0
	$AC44               .byte $12,$B5,$31,$29,$80,$D0,$07,$A9,$00,$9D,$20,$06,$F0,$51,$BD,$20
	$AC54               .byte $06,$D0,$4C,$B5,$7F,$C9,$02,$90,$0E,$D6,$9A,$D6,$9A,$A9,$00,$9D
	$AC64               .byte $12,$04,$9D,$1B,$04,$F0,$09,$C9,$01,$F0,$05,$BD,$36,$04,$D0,$2F
	$AC74               .byte $A9,$00,$95,$7F,$A9,$01,$9D,$36,$04,$A9,$01,$9D,$20,$06,$A0,$00
	$AC84               .byte $E0,$02,$90,$01,$C8,$B9,$F0,$00,$09,$10,$99,$F0,$00,$BD,$12,$04
	$AC94               .byte $38,$BC,$51,$04,$F9,$03,$E6,$9D,$12,$04,$B0,$03,$DE,$1B,$04,$60
	$ACA4               .byte $01,$02,$02,$03,$01,$02,$02,$03,$01,$02,$02,$03,$B5,$7F,$D0,$69
	$ACB4               .byte $20,$A7,$E7,$20,$84,$EB,$BD,$09,$04,$38,$E9,$60,$9D,$09,$04,$B5
	$ACC4               .byte $9A,$E9,$00,$95,$9A,$C9,$F1,$90,$04,$A9,$FF,$95,$88,$8A,$48,$A0
	$ACD4               .byte $01,$B9,$88,$00,$F0,$3E,$30,$3C,$B5,$9A,$38,$F9,$9A,$00,$20,$84
	$ACE4               .byte $F0,$C9,$18,$B0,$2F,$B5,$91,$38,$F9,$91,$00,$20,$84,$F0,$C9,$10
	$ACF4               .byte $B0,$22,$A9,$FF,$95,$7F,$A9,$03,$9D,$5A,$04,$A9,$78,$85,$C5,$A9
	$AD04               .byte $02,$85,$F0,$A9,$32,$84,$3E,$20,$D4,$D6,$A9,$01,$A6,$3E,$20,$67
	$AD14               .byte $D8,$68,$AA,$60,$88,$10,$BA,$68,$AA,$60,$B4,$88,$88,$10,$01,$60
	$AD24               .byte $B5,$9A,$C9,$F9,$90,$0C,$BD,$1B,$04,$10,$F4,$A9,$00,$85,$CC,$4C
	$AD34               .byte $D7,$ED,$A4,$CD,$30,$E3,$A9,$00,$85,$CC,$B1,$27,$38,$E9,$18,$D5
	$AD44               .byte $9A,$B0,$65,$69,$03,$D5,$9A,$90,$04,$A9,$01,$D0,$0E,$B1,$29,$D5
	$AD54               .byte $9A,$90,$55,$E9,$03,$D5,$9A,$B0,$22,$A9,$02,$85,$CC,$B1,$23,$C9
	$AD64               .byte $10,$F0,$07,$38,$E9,$0C,$D5,$91,$B0,$0D,$B1,$25,$C9,$FF,$F0,$0B
	$AD74               .byte $38,$E9,$04,$D5,$91,$B0,$04,$A9,$00,$85,$CC,$B1,$23,$38,$E9,$10
	$AD84               .byte $F0,$10,$D5,$91,$B0,$22,$69,$04,$D5,$91,$90,$06,$A5,$CC,$09,$04
	$AD94               .byte $D0,$14,$B1,$25,$C9,$FF,$F0,$10,$D5,$91,$90,$0C,$E9,$04,$D5,$91
	$ADA4               .byte $B0,$06,$A5,$CC,$09,$08,$85,$CC,$A5,$CC,$D0,$07,$88,$30,$03,$4C
	$ADB4               .byte $3A,$ED,$60,$46,$CC,$90,$11,$BD,$1B,$04,$30,$0C,$B1,$27,$E9,$18
	$ADC4               .byte $95,$9A,$F6,$9A,$A9,$01,$85,$CB,$46,$CC,$90,$1A,$BD,$1B,$04,$10
	$ADD4               .byte $15,$B1,$29,$95,$9A,$20,$FD,$F0,$20,$82,$F1,$E0,$02,$B0,$03,$20
	$ADE4               .byte $29,$CC,$A5,$CB,$D0,$30,$46,$CC,$90,$07,$BD,$2D,$04,$30,$02,$10
	$ADF4               .byte $09,$46,$CC,$90,$21,$BD,$2D,$04,$10,$1C,$20,$D4,$F0,$20,$68,$F1
	$AE04               .byte $BD,$2D,$04,$1D,$24,$04,$F0,$0E,$BD,$48,$04,$49,$01,$9D,$48,$04
	$AE14               .byte $A5,$F1,$09,$02,$85,$F1,$60,$A2,$07,$86,$12,$A4,$12,$88,$10,$03
	$AE24               .byte $4C,$20,$EF,$B5,$88,$30,$F9,$F0,$F7,$B9,$88,$00,$30,$F2,$F0,$F0
	$AE34               .byte $A9,$00,$85,$CC,$B9,$9A,$00,$38,$F5,$9A,$20,$84,$F0,$C9,$18,$B0
	$AE44               .byte $71,$B5,$9A,$18,$69,$18,$85,$12,$B9,$9A,$00,$18,$69,$07,$38,$E5
	$AE54               .byte $12,$20,$84,$F0,$C9,$04,$B0,$04,$A9,$01,$D0,$12,$B9,$9A,$00,$18
	$AE64               .byte $69,$11,$38,$F5,$9A,$20,$84,$F0,$C9,$04,$B0,$15,$A9,$02,$85,$CC
	$AE74               .byte $B9,$91,$00,$38,$F5,$91,$20,$84,$F0,$C9,$10,$90,$04,$A9,$00,$85
	$AE84               .byte $CC,$B5,$91,$18,$69,$10,$85,$12,$B9,$91,$00,$18,$69,$07,$38,$E5
	$AE94               .byte $12,$20,$84,$F0,$C9,$04,$B0,$04,$A9,$04,$D0,$12,$B9,$91,$00,$18
	$AEA4               .byte $69,$09,$38,$F5,$91,$20,$84,$F0,$C9,$04,$B0,$06,$A9,$08,$05,$CC
	$AEB4               .byte $85,$CC,$A9,$00,$85,$4B,$46,$CC,$90,$05,$20,$9C,$F0,$30,$09,$46
	$AEC4               .byte $CC,$90,$20,$20,$9C,$F0,$30,$1B,$20,$B3,$F0,$B0,$12,$20,$FD,$F0
	$AED4               .byte $20,$82,$F1,$20,$AA,$F0,$20,$FD,$F0,$20,$82,$F1,$20,$AA,$F0,$A9
	$AEE4               .byte $01,$85,$4B,$46,$CC,$90,$05,$20,$8E,$F0,$30,$09,$46,$CC,$90,$20
	$AEF4               .byte $20,$8E,$F0,$30,$1B,$20,$B3,$F0,$B0,$12,$20,$D4,$F0,$20,$68,$F1
	$AF04               .byte $20,$AA,$F0,$20,$D4,$F0,$20,$68,$F1,$20,$AA,$F0,$A9,$01,$85,$4B
	$AF14               .byte $20,$2D,$EF,$20,$AA,$F0,$20,$2D,$EF,$20,$AA,$F0,$88,$30,$03,$4C
	$AF24               .byte $27,$EE,$CA,$30,$03,$4C,$1D,$EE,$60,$E0,$02,$90,$07,$C0,$02,$90
	$AF34               .byte $03,$4C,$39,$F0,$A9,$00,$8D,$87,$04,$BD,$75,$04,$F0,$03,$4C,$39
	$AF44               .byte $F0,$A5,$4B,$D0,$03,$4C,$39,$F0,$E0,$02,$B0,$07,$B5,$BD,$F0,$14
	$AF54               .byte $4C,$39,$F0,$B5,$88,$C9,$01,$D0,$0B,$B5,$7F,$C9,$02,$B0,$12,$A9
	$AF64               .byte $01,$8D,$87,$04,$B9,$9A,$00,$18,$69,$04,$D5,$9A,$90,$03,$4C,$39
	$AF74               .byte $F0,$A9,$14,$9D,$75,$04,$A9,$00,$9D,$36,$04,$C0,$02,$90,$0A,$B9
	$AF84               .byte $88,$00,$C9,$02,$F0,$03,$4C,$39,$F0,$A5,$F0,$09,$02,$85,$F0,$B5
	$AF94               .byte $88,$C9,$02,$D0,$1D,$E0,$02,$B0,$19,$84,$12,$B4,$7F,$B9,$49,$F0
	$AFA4               .byte $A4,$12,$48,$68,$D0,$03,$4C,$39,$F0,$95,$7F,$A9,$00,$9D,$36,$04
	$AFB4               .byte $F0,$2A,$D6,$88,$D0,$0A,$A9,$FF,$9D,$1B,$04,$A9,$00,$9D,$12,$04
	$AFC4               .byte $A9,$00,$95,$7F,$9D,$24,$04,$9D,$2D,$04,$B5,$91,$30,$04,$A9,$FF
	$AFD4               .byte $D0,$02,$A9,$00,$9D,$6C,$04,$A9,$80,$9D,$63,$04,$84,$12,$BC,$51
	$AFE4               .byte $04,$B9,$54,$F0,$9D,$51,$04,$A9,$01,$9D,$7E,$04,$A4,$12,$C0,$02
	$AFF4               .byte $B0,$43,$BD,$51,$04,$C9,$07,$F0,$0A,$C9,$08,$90,$06,$A5,$F1,$09
	$B004               .byte $80,$85,$F1,$BC,$51,$04,$B9,$60,$F0,$85,$13,$AD,$87,$04,$F0,$05
	$B014               .byte $B9,$6C,$F0,$85,$13,$B9,$78,$F0,$18,$6D,$87,$04,$85,$14,$A5,$12
	$B024               .byte $85,$3E,$48,$8A,$48,$A5,$13,$48,$A5,$14,$20,$67,$D8,$68,$20,$D4
	$B034               .byte $D6,$68,$AA,$68,$A8,$BD,$51,$04,$C9,$0B,$D0,$08,$A5,$C8,$D0,$04
	$B044               .byte $A9,$20,$85,$F0,$60,$06,$06,$07,$08,$09,$0A,$00,$00,$00,$00,$00
	$B054               .byte $04,$05,$06,$07,$08,$09,$0A,$0B,$08,$09,$0A,$0B,$00,$00,$00,$00
	$B064               .byte $32,$4B,$64,$64,$4B,$64,$96,$64,$00,$00,$00,$00,$32,$4B,$64,$64
	$B074               .byte $64,$96,$C8,$64,$00,$00,$00,$00,$01,$02,$03,$03,$02,$03,$04,$03
	$B084               .byte $48,$68,$10,$05,$49,$FF,$18,$69,$01,$60,$B9,$24,$04,$38,$FD,$24
	$B094               .byte $04,$B9,$2D,$04,$FD,$2D,$04,$60,$B9,$12,$04,$38,$FD,$12,$04,$B9
	$B0A4               .byte $1B,$04,$FD,$1B,$04,$60,$86,$12,$84,$13,$A6,$13,$A4,$12,$60,$E0
	$B0B4               .byte $02,$90,$1C,$B5,$7F,$C9,$02,$90,$16,$A9,$01,$D5,$88,$B0,$10,$C0
	$B0C4               .byte $02,$90,$0C,$B9,$7F,$00,$C9,$02,$90,$05,$A9,$01,$D9,$88,$00,$60
	$B0D4               .byte $A9,$00,$38,$FD,$24,$04,$9D,$24,$04,$A9,$00,$FD,$2D,$04,$9D,$2D
	$B0E4               .byte $04,$A9,$00,$38,$FD,$63,$04,$9D,$63,$04,$A9,$00,$FD,$6C,$04,$9D
	$B0F4               .byte $6C,$04,$B5,$31,$29,$40,$95,$31,$60,$A9,$00,$38,$FD,$12,$04,$9D
	$B104               .byte $12,$04,$A9,$00,$FD,$1B,$04,$9D,$1B,$04,$60,$85,$2D,$A5,$2C,$10
	$B114               .byte $24,$A9,$00,$38,$E5,$2B,$85,$2B,$A9,$00,$E5,$2C,$85,$2C,$20,$39
	$B124               .byte $F1,$A9,$00,$38,$E5,$2E,$85,$2E,$A9,$00,$E5,$2F,$85,$2F,$A9,$00
	$B134               .byte $E5,$30,$85,$30,$60,$8A,$48,$A9,$00,$85,$2E,$85,$2F,$85,$30,$A2
	$B144               .byte $08,$06,$2E,$26,$2F,$26,$30,$06,$2D,$90,$13,$18,$A5,$2B,$65,$2E
	$B154               .byte $85,$2E,$A5,$2C,$65,$2F,$85,$2F,$A9,$00,$65,$30,$85,$30,$CA,$D0
	$B164               .byte $E0,$68,$AA,$60,$BD,$24,$04,$85,$2B,$BD,$2D,$04,$85,$2C,$A9,$CD
	$B174               .byte $20,$0F,$F1,$A5,$2F,$9D,$24,$04,$A5,$30,$9D,$2D,$04,$60,$BD,$12
	$B184               .byte $04,$85,$2B,$BD,$1B,$04,$85,$2C,$A9,$CD,$20,$0F,$F1,$A5,$2F,$9D
	$B194               .byte $12,$04,$A5,$30,$9D,$1B,$04,$60,$A0,$04,$A5,$13,$0A,$66,$13,$66
	$B1A4               .byte $12,$88,$D0,$F6,$60,$8A,$48,$A2,$0B,$06,$1B,$26,$1C,$2A,$2A,$45
	$B1B4               .byte $1B,$2A,$45,$1B,$4A,$4A,$49,$FF,$29,$01,$05,$1B,$85,$1B,$CA,$D0
	$B1C4               .byte $E8,$68,$AA,$A5,$1B,$60,$20,$B7,$DA,$A2,$09,$A9,$00,$95,$03,$CA
	$B1D4               .byte $10,$F9,$85,$3E,$E6,$41,$20,$D4,$D6,$A9,$0F,$8D,$15,$40,$A9,$01
	$B1E4               .byte $85,$F0,$A9,$02,$85,$41,$A4,$40,$D0,$02,$A9,$FF,$85,$42,$A2,$00
	$B1F4               .byte $8E,$88,$04,$86,$3B,$86,$3C,$8E,$58,$05,$CA,$86,$89,$A6,$40,$20
	$B204               .byte $A6,$F3,$CA,$10,$FA,$A9,$00,$85,$C8,$A5,$3C,$4A,$4A,$C9,$08,$90
	$B214               .byte $02,$A9,$08,$AA,$BD,$B0,$F3,$85,$C6,$BD,$B9,$F3,$85,$C7,$A5,$3C
	$B224               .byte $C9,$02,$B0,$06,$A9,$03,$85,$C6,$85,$C7,$A2,$07,$A9,$00,$9D,$48
	$B234               .byte $04,$9D,$75,$04,$9D,$7E,$04,$9D,$24,$04,$9D,$2D,$04,$9D,$12,$04
	$B244               .byte $9D,$1B,$04,$9D,$63,$04,$9D,$6C,$04,$9D,$00,$04,$9D,$09,$04,$A9
	$B254               .byte $01,$9D,$3F,$04,$9D,$5A,$04,$A9,$03,$9D,$36,$04,$CA,$10,$CD,$A2
	$B264               .byte $05,$A9,$FF,$95,$8A,$CA,$10,$F9,$A6,$40,$20,$7C,$F3,$CA,$10,$FA
	$B274               .byte $20,$3C,$D2,$20,$89,$D2,$A5,$C6,$C9,$10,$B0,$04,$A9,$58,$85,$C6
	$B284               .byte $20,$9B,$F4,$20,$F5,$D8,$A5,$16,$F0,$03,$4C,$BB,$C1,$A5,$C8,$F0
	$B294               .byte $03,$4C,$09,$CF,$20,$0C,$C7,$A5,$3B,$29,$03,$D0,$08,$A9,$08,$85
	$B2A4               .byte $F2,$A6,$3A,$D0,$06,$A9,$FF,$85,$3D,$E6,$3C,$20,$66,$F4,$A5,$3D
	$B2B4               .byte $F0,$05,$C6,$3D,$20,$C2,$F3,$20,$A9,$F1,$20,$87,$E6,$20,$EF,$C6
	$B2C4               .byte $20,$86,$C7,$20,$27,$C8,$20,$AD,$C8,$20,$D3,$D8,$20,$7D,$E5,$20
	$B2D4               .byte $6A,$CB,$E6,$4C,$A6,$40,$B5,$88,$10,$25,$A5,$3A,$D0,$3A,$B5,$41
	$B2E4               .byte $30,$1D,$D6,$C3,$D0,$33,$8A,$48,$20,$1C,$C7,$68,$AA,$A0,$02,$D6
	$B2F4               .byte $41,$84,$46,$30,$0A,$20,$7C,$F3,$20,$A6,$F3,$A9,$80,$85,$F2,$CA
	$B304               .byte $10,$D4,$A5,$41,$10,$04,$A5,$42,$30,$4E,$A5,$3A,$F0,$0B,$20,$5E
	$B314               .byte $E7,$AD,$1C,$06,$29,$30,$F0,$93,$60,$A2,$05,$B5,$8A,$F0,$02,$10
	$B324               .byte $8A,$CA,$10,$F7,$A5,$BB,$10,$83,$A6,$40,$B4,$88,$88,$10,$0F,$B5
	$B334               .byte $41,$30,$0B,$A9,$FF,$95,$88,$A9,$01,$95,$C3,$4C,$AF,$F2,$CA,$10
	$B344               .byte $E9,$A9,$02,$85,$F2,$A2,$96,$20,$54,$F4,$A6,$3B,$E8,$E0,$10,$D0
	$B354               .byte $02,$A2,$04,$86,$3B,$4C,$09,$F2,$A9,$01,$85,$F2,$A9,$00,$85,$17
	$B364               .byte $85,$18,$85,$15,$20,$01,$F4,$20,$5B,$F4,$20,$5E,$E7,$29,$30,$D0
	$B374               .byte $04,$C6,$15,$D0,$F2,$4C,$CA,$F1,$B5,$41,$30,$23,$BD,$A4,$F3,$95
	$B384               .byte $91,$A9,$B8,$95,$9A,$95,$BD,$A9,$C8,$95,$BF,$A9,$5A,$B4,$41,$10
	$B394               .byte $02,$A9,$01,$95,$C3,$A9,$00,$95,$C1,$9D,$2D,$04,$9D,$24,$04,$60
	$B3A4               .byte $20,$D0,$A9,$03,$9D,$51,$04,$A9,$02,$95,$88,$60,$58,$50,$58,$50
	$B3B4               .byte $50,$40,$38,$30,$28,$04,$04,$03,$03,$02,$02,$02,$02,$02,$A5,$3D
	$B3C4               .byte $29,$20,$F0,$1C,$A2,$0A,$BD,$EB,$F3,$95,$57,$CA,$10,$F8,$A0,$0A
	$B3D4               .byte $A5,$3C,$85,$43,$20,$72,$D7,$85,$60,$A5,$43,$85,$61,$4C,$23,$C1
	$B3E4               .byte $A9,$F6,$A0,$F3,$4C,$27,$C1,$20,$6C,$08,$19,$11,$0A,$1C,$0E,$25
	$B3F4               .byte $00,$00,$20,$6C,$08,$24,$24,$24,$24,$24,$24,$24,$24,$20,$5B,$F4
	$B404               .byte $A2,$01,$BD,$31,$F4,$BC,$33,$F4,$20,$27,$C1,$CA,$10,$F4,$A2,$0F
	$B414               .byte $A9,$24,$95,$5A,$CA,$10,$F9,$A9,$10,$85,$59,$A9,$21,$85,$57,$A2
	$B424               .byte $02,$BD,$35,$F4,$85,$58,$20,$23,$C1,$CA,$10,$F5,$60,$38,$4B,$F4
	$B434               .byte $F4,$88,$A8,$E8,$21,$C8,$10,$24,$24,$24,$10,$0A,$16,$0E,$24,$24
	$B444               .byte $18,$1F,$0E,$1B,$24,$24,$24,$23,$DA,$04,$AA,$AA,$AA,$AA,$A2,$14
	$B454               .byte $20,$5B,$F4,$CA,$D0,$FA,$60,$A9,$00,$85,$02,$A5,$02,$F0,$FC,$C6
	$B464               .byte $02,$60,$20,$5F,$F4,$A5,$3A,$D0,$F8,$20,$5E,$E7,$29,$10,$F0,$F1
	$B474               .byte $A9,$04,$85,$F2,$A5,$01,$29,$EF,$8D,$01,$20,$20,$5B,$F4,$20,$5E
	$B484               .byte $E7,$29,$10,$F0,$F6,$A5,$01,$8D,$01,$20,$A0,$04,$A5,$C8,$05,$16
	$B494               .byte $F0,$02,$A0,$20,$84,$F2,$60,$A9,$01,$8D,$8E,$04,$8D,$8F,$04,$A9
	$B4A4               .byte $FF,$85,$BB,$85,$87,$8D,$8C,$04,$A2,$01,$8E,$59,$04,$86,$90,$E8
	$B4B4               .byte $86,$46,$A9,$40,$85,$99,$60,$FF,$FF,$FF,$FF,$FF,$FF,$FF,$FF,$FF
	$B4C4               .byte $FF,$FF,$FF,$FF,$FF,$FF,$FF,$FF,$FF,$FF,$FF,$FF,$FF,$FF,$FF,$FF
	$B4D4               .byte $FF,$FF,$FF,$FF,$FF,$FF,$FF,$FF,$FF,$FF,$FF,$FF,$FF,$FF,$FF,$FF
	$B4E4               .byte $FF,$FF,$FF,$FF,$FF,$FF,$FF,$FF,$FF,$FF,$FF,$FF,$FF,$FF,$FF,$FF
	$B4F4               .byte $FF,$FF,$FF,$FF,$FF,$FF,$FF,$FF,$FF,$FF,$FF,$FF,$20,$8F,$F7,$60
	$B504               .byte $A9,$00,$AA,$85,$FD,$F0,$10,$8A,$4A,$AA,$E8,$8A,$C9,$04,$F0,$EF
	$B514               .byte $A5,$FD,$18,$69,$04,$85,$FD,$8A,$0A,$AA,$B5,$E0,$85,$FE,$B5,$E1
	$B524               .byte $85,$FF,$B5,$E1,$F0,$E1,$8A,$4A,$AA,$D6,$D0,$D0,$DD,$B4,$E8,$F6
	$B534               .byte $E8,$B1,$FE,$F0,$C7,$A8,$C9,$FF,$F0,$09,$29,$C0,$C9,$C0,$F0,$0F
	$B544               .byte $4C,$61,$F5,$B5,$D8,$F0,$13,$D6,$D8,$B5,$EC,$95,$E8,$D0,$0B,$98
	$B554               .byte $29,$3F,$95,$D8,$D6,$D8,$B5,$E8,$95,$EC,$4C,$31,$F5,$98,$10,$17
	$B564               .byte $29,$0F,$18,$65,$DF,$A8,$B9,$60,$F6,$95,$D4,$A8,$8A,$C9,$02,$F0
	$B574               .byte $4F,$B4,$E8,$F6,$E8,$B1,$FE,$A8,$8A,$C9,$03,$F0,$60,$48,$AA,$C9
	$B584               .byte $01,$F0,$32,$A6,$FD,$B9,$01,$F6,$F0,$0B,$9D,$02,$40,$B9,$00,$F6
	$B594               .byte $09,$08,$9D,$03,$40,$A8,$68,$AA,$98,$D0,$0B,$A0,$00,$8A,$C9,$02
	$B5A4               .byte $F0,$06,$A0,$10,$D0,$02,$B4,$DC,$98,$A4,$FD,$99,$00,$40,$B5,$D4
	$B5B4               .byte $95,$D0,$4C,$0E,$F5,$A5,$F5,$29,$02,$F0,$C8,$68,$AA,$4C,$B2,$F5
	$B5C4               .byte $98,$AC,$F0,$06,$F0,$04,$A9,$FF,$D0,$0B,$18,$69,$FE,$0A,$0A,$C9
	$B5D4               .byte $3C,$90,$02,$A9,$3C,$8D,$08,$40,$85,$DE,$4C,$75,$F5,$A5,$F4,$C9
	$B5E4               .byte $02,$F0,$12,$B9,$00,$F7,$8D,$0C,$40,$B9,$01,$F7,$8D,$0E,$40,$B9
	$B5F4               .byte $02,$F7,$8D,$0F,$40,$4C,$B2,$F5,$16,$FF,$10,$C5,$07,$F0,$00,$00
	$B604               .byte $00,$D4,$00,$C8,$00,$BD,$00,$B2,$00,$A8,$00,$9F,$00,$96,$00,$8D
	$B614               .byte $00,$85,$00,$7E,$00,$76,$00,$70,$01,$AB,$01,$93,$01,$7C,$01,$67
	$B624               .byte $01,$52,$01,$3F,$01,$2D,$01,$1C,$01,$0C,$00,$FD,$00,$EE,$00,$E1
	$B634               .byte $03,$57,$03,$27,$02,$F9,$02,$CF,$02,$A6,$02,$80,$02,$5C,$02,$3A
	$B644               .byte $02,$1A,$01,$FC,$01,$DF,$01,$C4,$03,$F8,$00,$69,$00,$63,$00,$5E
	$B654               .byte $00,$58,$00,$53,$00,$4F,$00,$4A,$00,$46,$00,$42,$03,$06,$0C,$18
	$B664               .byte $30,$12,$24,$09,$08,$04,$07,$01,$04,$08,$10,$20,$40,$18,$30,$0C
	$B674               .byte $01,$06,$0C,$18,$30,$60,$24,$48,$12,$10,$08,$0E,$02,$03,$04,$A9
	$B684               .byte $00,$F0,$0A,$A9,$08,$D0,$06,$A9,$0C,$D0,$02,$A9,$04,$85,$F9,$A9
	$B694               .byte $40,$85,$FA,$86,$FB,$84,$FC,$A0,$00,$B1,$FB,$91,$F9,$C8,$98,$C9
	$B6A4               .byte $04,$D0,$F6,$60,$AA,$20,$98,$F7,$86,$F6,$AD,$F5,$06,$F0,$0B,$C9
	$B6B4               .byte $02,$D0,$07,$85,$F0,$A9,$00,$8D,$F5,$06,$B9,$CA,$FB,$A8,$A2,$00
	$B6C4               .byte $B9,$CA,$FB,$95,$DF,$C8,$E8,$8A,$C9,$09,$D0,$F4,$A9,$01,$85,$D0
	$B6D4               .byte $85,$D1,$85,$D2,$85,$D3,$A9,$00,$85,$E8,$85,$E9,$85,$EA,$85,$EB
	$B6E4               .byte $60,$94,$AB,$FD,$58,$00,$7F,$04,$18,$3F,$7F,$00,$00,$06,$7F,$0A
	$B6F4               .byte $C0,$08,$7F,$05,$C0,$C1,$89,$02,$0F,$FF,$FF,$FF,$10,$00,$18,$10
	$B704               .byte $01,$18,$00,$01,$88,$02,$02,$40,$03,$05,$40,$04,$07,$40,$A9,$7F
	$B714               .byte $8D,$01,$40,$8D,$05,$40,$86,$DC,$84,$DD,$60,$A2,$E5,$A0,$F6,$D0
	$B724               .byte $20,$A5,$F3,$4A,$B0,$0C,$A5,$F7,$4A,$B0,$1A,$A5,$F0,$29,$10,$D0
	$B734               .byte $EA,$60,$A5,$F7,$09,$01,$85,$F7,$A9,$00,$8D,$E4,$06,$A2,$FC,$A0
	$B744               .byte $F5,$20,$83,$F6,$60,$EE,$E4,$06,$AD,$E4,$06,$C9,$58,$D0,$28,$A9
	$B754               .byte $00,$85,$F7,$60,$A9,$C0,$8D,$17,$40,$20,$25,$FB,$20,$0A,$F9,$20
	$B764               .byte $38,$FA,$20,$AC,$FA,$20,$24,$F8,$A5,$F1,$8D,$E9,$06,$A9,$00,$85
	$B774               .byte $F0,$85,$F1,$85,$F2,$85,$F3,$60,$A5,$F4,$29,$06,$D0,$F9,$A5,$F4
	$B784               .byte $29,$F0,$85,$F4,$A2,$E9,$A0,$F6,$4C,$79,$F8,$A5,$F6,$C9,$20,$D0
	$B794               .byte $0A,$EE,$E8,$06,$29,$0F,$C9,$0F,$D0,$07,$8A,$A5,$F4,$29,$20,$D0
	$B7A4               .byte $22,$A9,$10,$8D,$0C,$40,$8D,$00,$40,$8D,$04,$40,$A9,$00,$85,$F4
	$B7B4               .byte $85,$F5,$85,$F6,$8D,$FA,$06,$85,$F7,$8D,$08,$40,$8D,$11,$40,$8D
	$B7C4               .byte $F0,$06,$60,$A9,$10,$8D,$04,$40,$8D,$0C,$40,$A9,$00,$F0,$E1,$A9
	$B7D4               .byte $00,$8D,$FA,$06,$60,$A2,$F5,$A0,$F6,$4C,$79,$F8,$EE,$FB,$06,$AD
	$B7E4               .byte $FB,$06,$C9,$10,$F0,$EF,$C9,$20,$F0,$E5,$60,$A9,$00,$8D,$FB,$06
	$B7F4               .byte $A9,$F0,$8D,$FA,$06,$A2,$F1,$A0,$F6,$4C,$79,$F8,$A5,$F4,$29,$F0
	$B804               .byte $09,$02,$85,$F4,$A9,$00,$8D,$F7,$06,$A2,$F1,$A0,$F6,$4C,$79,$F8
	$B814               .byte $EE,$F7,$06,$AD,$F7,$06,$C9,$10,$D0,$3D,$4C,$9B,$F8,$4C,$A5,$F7
	$B824               .byte $A5,$F0,$4A,$B0,$F8,$A5,$F6,$C9,$DF,$F0,$0C,$C9,$7F,$F0,$08,$C9
	$B834               .byte $20,$F0,$04,$A5,$F6,$D0,$20,$AD,$FA,$06,$C9,$0F,$F0,$AD,$C9,$F0
	$B844               .byte $F0,$9A,$A5,$F0,$4A,$4A,$B0,$B4,$4A,$B0,$10,$4A,$B0,$0A,$A5,$F4
	$B854               .byte $4A,$4A,$B0,$BC,$4A,$B0,$22,$60,$4C,$7C,$F7,$A5,$F4,$29,$80,$D0
	$B864               .byte $F6,$A5,$F4,$29,$F0,$09,$04,$85,$F4,$A9,$00,$8D,$F3,$06,$8D,$F1
	$B874               .byte $06,$A2,$ED,$A0,$F6,$20,$8B,$F6,$60,$EE,$F3,$06,$AD,$F3,$06,$C9
	$B884               .byte $03,$D0,$1A,$A9,$00,$8D,$F3,$06,$EE,$F1,$06,$AD,$F1,$06,$C9,$10
	$B894               .byte $D0,$0C,$A9,$10,$8D,$0C,$40,$A5,$F4,$29,$F0,$85,$F4,$60,$8D,$0E
	$B8A4               .byte $40,$60,$A9,$00,$8D,$E0,$06,$18,$A5,$1B,$29,$07,$69,$02,$8D,$E1
	$B8B4               .byte $06,$A5,$F7,$29,$00,$09,$80,$85,$F7,$D0,$29,$EE,$E0,$06,$AD,$E0
	$B8C4               .byte $06,$CD,$E1,$06,$D0,$1E,$A9,$10,$8D,$00,$40,$8D,$04,$40,$A9,$00
	$B8D4               .byte $85,$F7,$A5,$F4,$29,$0F,$85,$F4,$60,$20,$A5,$F7,$A9,$80,$85,$F4
	$B8E4               .byte $A9,$02,$85,$F0,$A2,$F9,$A0,$F6,$20,$83,$F6,$A5,$1B,$29,$0F,$8D
	$B8F4               .byte $02,$40,$A2,$F9,$A0,$F6,$20,$8F,$F6,$A5,$1B,$4A,$4A,$29,$0F,$8D
	$B904               .byte $06,$40,$60,$4C,$A6,$F8,$A5,$F6,$F0,$0D,$C9,$DF,$F0,$09,$A5,$F0
	$B914               .byte $29,$E0,$F0,$36,$20,$A5,$F7,$A5,$F0,$0A,$B0,$BD,$0A,$B0,$2F,$0A
	$B924               .byte $B0,$3F,$A5,$F4,$0A,$B0,$BD,$A5,$F4,$29,$E0,$D0,$1D,$A5,$F6,$C9
	$B934               .byte $DF,$F0,$14,$A5,$F6,$D0,$13,$A5,$F3,$0A,$B0,$C7,$0A,$B0,$34,$A5
	$B944               .byte $F7,$0A,$B0,$07,$0A,$B0,$48,$20,$25,$F7,$60,$4C,$BF,$F8,$A9,$0F
	$B954               .byte $8D,$FA,$06,$A5,$F4,$29,$0F,$09,$40,$85,$F4,$A2,$D1,$A0,$F9,$D0
	$B964               .byte $2A,$A9,$02,$85,$F0,$A5,$F4,$29,$0F,$09,$20,$85,$F4,$A2,$CD,$A0
	$B974               .byte $F9,$D0,$18,$A9,$00,$8D,$FC,$06,$A5,$F7,$29,$00,$09,$40,$85,$F7
	$B984               .byte $A2,$D5,$A0,$F9,$20,$8F,$F6,$A2,$D9,$A0,$F9,$20,$83,$F6,$60,$EE
	$B994               .byte $FC,$06,$AD,$FC,$06,$C9,$12,$F0,$2D,$C9,$06,$90,$10,$A5,$1B,$09
	$B9A4               .byte $10,$29,$7F,$8D,$FE,$06,$2A,$8D,$FD,$06,$4C,$BD,$F9,$EE,$FD,$06
	$B9B4               .byte $EE,$FD,$06,$EE,$FE,$06,$EE,$FE,$06,$AD,$FD,$06,$8D,$06,$40,$AD
	$B9C4               .byte $FE,$06,$8D,$02,$40,$60,$4C,$CA,$F8,$B8,$D5,$20,$00,$9F,$93,$80
	$B9D4               .byte $22,$3F,$BA,$E0,$06,$3F,$BB,$CE,$06,$B8,$93,$50,$02,$80,$7F,$60
	$B9E4               .byte $68,$80,$7F,$62,$68,$A5,$F5,$29,$02,$D0,$37,$A5,$F6,$C9,$DF,$F0
	$B9F4               .byte $04,$A5,$F6,$D0,$2D,$A9,$00,$8D,$F9,$06,$A5,$F5,$29,$E0,$09,$02
	$BA04               .byte $85,$F5,$A2,$DD,$A0,$F9,$D0,$73,$EE,$F9,$06,$AD,$F9,$06,$C9,$07
	$BA14               .byte $D0,$10,$A9,$7F,$8D,$05,$40,$A9,$10,$8D,$04,$40,$A5,$F5,$29,$E0
	$BA24               .byte $85,$F5,$60,$20,$A5,$F7,$A2,$E1,$A0,$F9,$20,$83,$F6,$A2,$E5,$A0
	$BA34               .byte $F9,$4C,$7F,$FA,$A5,$F6,$F0,$06,$29,$0F,$C9,$0F,$D0,$21,$A5,$F4
	$BA44               .byte $29,$80,$D0,$1B,$A5,$F7,$29,$C0,$D0,$15,$A5,$F1,$4A,$B0,$D4,$4A
	$BA54               .byte $B0,$93,$4A,$B0,$2A,$4A,$4A,$B0,$07,$A5,$F5,$4A,$4A,$B0,$A9,$60
	$BA64               .byte $A5,$F6,$D0,$FB,$A5,$F5,$29,$02,$D0,$F5,$A2,$8A,$A0,$FA,$20,$8F
	$BA74               .byte $F6,$A5,$1B,$29,$3F,$09,$10,$8D,$06,$40,$60,$20,$8F,$F6,$60,$A0
	$BA84               .byte $0A,$A9,$EF,$4C,$A5,$FB,$D9,$86,$A8,$48,$08,$7F,$40,$28,$08,$7F
	$BA94               .byte $45,$28,$EE,$F6,$06,$AD,$F6,$06,$C9,$04,$D0,$38,$A5,$F5,$29,$1F
	$BAA4               .byte $85,$F5,$A2,$92,$A0,$FA,$D0,$54,$A5,$F6,$F0,$0A,$C9,$08,$F0,$06
	$BAB4               .byte $29,$0F,$C9,$0F,$D0,$1E,$A5,$F4,$29,$80,$D0,$18,$A5,$F1,$0A,$B0
	$BAC4               .byte $52,$0A,$B0,$1A,$A5,$F5,$0A,$0A,$B0,$C8,$A5,$F1,$29,$20,$F0,$05
	$BAD4               .byte $A5,$F6,$F0,$2C,$60,$A5,$F6,$C9,$DF,$D0,$F9,$4C,$9F,$F7,$A5,$F5
	$BAE4               .byte $29,$1F,$09,$40,$85,$F5,$A9,$00,$8D,$08,$40,$85,$F6,$8D,$F6,$06
	$BAF4               .byte $A9,$10,$8D,$04,$40,$8D,$0C,$40,$A2,$8E,$A0,$FA,$20,$87,$F6,$60
	$BB04               .byte $AD,$E9,$06,$29,$20,$D0,$05,$A9,$02,$8D,$F5,$06,$A0,$08,$A9,$DF
	$BB14               .byte $4C,$A5,$FB,$A0,$04,$A9,$7F,$4C,$A5,$FB,$A0,$00,$A9,$02,$4C,$C1
	$BB24               .byte $FB,$AD,$E8,$06,$D0,$34,$A5,$F2,$4A,$B0,$53,$4A,$B0,$EC,$4A,$B0
	$BB34               .byte $17,$4A,$B0,$44,$4A,$B0,$2E,$4A,$B0,$20,$4A,$B0,$17,$4A,$B0,$0E
	$BB44               .byte $A5,$F6,$D0,$01,$60,$4C,$04,$F5,$A0,$02,$A9,$04,$D0,$53,$A0,$09
	$BB54               .byte $A9,$80,$D0,$15,$A0,$07,$A9,$40,$D0,$0F,$A9,$00,$8D,$E8,$06,$A0
	$BB64               .byte $06,$A9,$20,$D0,$58,$A0,$05,$A9,$10,$20,$A8,$F6,$A2,$FC,$A0,$FC
	$BB74               .byte $20,$12,$F7,$EE,$F0,$06,$D0,$CD,$A0,$03,$A9,$08,$D0,$04,$A0,$01
	$BB84               .byte $A9,$01,$20,$A8,$F6,$A2,$80,$A0,$80,$20,$1A,$F7,$A9,$83,$8D,$01
	$BB94               .byte $40,$A9,$7F,$8D,$05,$40,$D0,$13,$20,$A8,$F6,$A2,$04,$A0,$04,$D0
	$BBA4               .byte $07,$20,$A8,$F6,$A2,$80,$A0,$80,$20,$12,$F7,$A9,$00,$8D,$F0,$06
	$BBB4               .byte $A5,$F4,$29,$20,$F0,$8F,$A9,$D5,$8D,$01,$40,$D0,$88,$20,$A8,$F6
	$BBC4               .byte $A2,$80,$A0,$BA,$D0,$C3,$0B,$14,$1D,$26,$2F,$38,$41,$4A,$53,$5C
	$BBD4               .byte $65,$0C,$02,$FF,$0B,$FF,$1E,$FF,$31,$FF,$15,$18,$FE,$2A,$FE,$65
	$BBE4               .byte $FE,$86,$FE,$0C,$0D,$FE,$00,$00,$13,$FE,$00,$00,$15,$38,$FF,$5A
	$BBF4               .byte $FF,$79,$FF,$94,$FF,$00,$00,$00,$D7,$FE,$ED,$FE,$00,$00,$00,$B3
	$BC04               .byte $FF,$C9,$FF,$DA,$FF,$EF,$FF,$15,$A5,$FC,$0A,$FD,$98,$FD,$E0,$FD
	$BC14               .byte $15,$B2,$FE,$00,$00,$C5,$FE,$00,$00,$15,$00,$00,$92,$FE,$A1,$FE
	$BC24               .byte $00,$00,$0C,$59,$FC,$72,$FC,$8C,$FC,$00,$00,$00,$00,$00,$38,$FC
	$BC34               .byte $49,$FC,$00,$00,$82,$02,$8B,$02,$80,$08,$02,$10,$02,$16,$02,$52
	$BC44               .byte $02,$02,$02,$1A,$00,$82,$02,$80,$10,$02,$16,$02,$52,$02,$5A,$02
	$BC54               .byte $02,$02,$56,$81,$02,$80,$12,$02,$0C,$02,$04,$02,$0C,$02,$04,$02
	$BC64               .byte $2A,$02,$81,$04,$02,$80,$04,$02,$81,$04,$88,$02,$02,$00,$88,$02
	$BC74               .byte $02,$80,$04,$02,$2A,$02,$24,$02,$2A,$02,$24,$02,$1C,$02,$81,$22
	$BC84               .byte $02,$80,$22,$02,$81,$24,$88,$02,$88,$02,$80,$56,$02,$4E,$02,$12
	$BC94               .byte $02,$4E,$02,$12,$02,$0C,$02,$81,$10,$02,$80,$10,$02,$81,$12,$88
	$BCA4               .byte $02,$C3,$81,$02,$02,$1C,$02,$02,$02,$1C,$1C,$FF,$C6,$88,$1C,$FF
	$BCB4               .byte $C7,$82,$4C,$4C,$2A,$4C,$FF,$C6,$88,$1C,$FF,$C4,$81,$46,$02,$46
	$BCC4               .byte $02,$32,$02,$46,$80,$2E,$2E,$FF,$C3,$82,$46,$46,$81,$32,$32,$46
	$BCD4               .byte $2E,$FF,$80,$0C,$0C,$81,$46,$46,$46,$80,$04,$04,$81,$46,$46,$02
	$BCE4               .byte $C8,$82,$4C,$4C,$2A,$4C,$FF,$C2,$81,$46,$80,$32,$32,$82,$46,$04
	$BCF4               .byte $81,$46,$2A,$FF,$C2,$81,$0C,$0C,$80,$04,$04,$81,$04,$80,$2E,$2E
	$BD04               .byte $81,$2E,$82,$24,$FF,$00,$81,$32,$02,$02,$06,$0C,$32,$02,$02,$8A
	$BD14               .byte $2E,$8B,$02,$8A,$2E,$8B,$02,$8A,$2E,$8B,$02,$88,$2E,$32,$2E,$D0
	$BD24               .byte $8C,$2C,$24,$FF,$D0,$2E,$20,$FF,$C3,$80,$28,$02,$82,$02,$80,$2C
	$BD34               .byte $02,$32,$02,$24,$02,$82,$02,$81,$02,$80,$28,$02,$06,$02,$28,$02
	$BD44               .byte $81,$02,$80,$24,$02,$32,$02,$24,$02,$FF,$80,$28,$02,$82,$02,$80
	$BD54               .byte $2C,$02,$32,$02,$24,$02,$82,$02,$89,$0C,$0A,$08,$06,$32,$30,$2E
	$BD64               .byte $2C,$2A,$28,$26,$24,$02,$02,$02,$86,$02,$C7,$84,$02,$FF,$C4,$80
	$BD74               .byte $28,$02,$82,$02,$80,$2C,$02,$32,$02,$24,$02,$82,$02,$81,$02,$80
	$BD84               .byte $28,$02,$06,$02,$28,$02,$81,$02,$80,$24,$02,$32,$02,$24,$02,$FF
	$BD94               .byte $C8,$84,$02,$FF,$81,$14,$02,$02,$14,$1A,$14,$02,$02,$88,$10,$10
	$BDA4               .byte $10,$10,$14,$10,$85,$3C,$81,$44,$85,$4A,$81,$44,$88,$28,$24,$20
	$BDB4               .byte $46,$42,$40,$C6,$81,$3C,$02,$02,$44,$02,$02,$02,$4A,$02,$46,$36
	$BDC4               .byte $36,$38,$38,$02,$3A,$02,$80,$3C,$3C,$81,$02,$24,$02,$02,$2C,$24
	$BDD4               .byte $88,$24,$1E,$46,$36,$38,$3A,$FF,$C4,$84,$02,$FF,$D8,$81,$06,$FF
	$BDE4               .byte $C6,$88,$06,$FF,$C7,$81,$06,$06,$80,$06,$06,$81,$06,$06,$80,$06
	$BDF4               .byte $06,$81,$06,$06,$FF,$C6,$88,$06,$FF,$E0,$81,$06,$06,$FF,$82,$0F
	$BE04               .byte $81,$06,$06,$EA,$06,$06,$06,$06,$FF,$C5,$80,$0E,$58,$FF,$00,$C5
	$BE14               .byte $80,$0E,$58,$FF,$82,$1C,$1C,$C3,$82,$1C,$1C,$81,$1C,$1C,$1C,$02
	$BE24               .byte $FF,$C7,$88,$1C,$FF,$00,$83,$02,$80,$0E,$02,$0E,$02,$0C,$02,$0E
	$BE34               .byte $02,$4E,$02,$02,$02,$0E,$02,$0C,$02,$02,$02,$0E,$02,$0C,$02,$0E
	$BE44               .byte $02,$4E,$02,$02,$02,$0E,$02,$0C,$02,$0E,$02,$0E,$02,$0C,$02,$0E
	$BE54               .byte $02,$4E,$02,$02,$02,$0E,$02,$0C,$02,$88,$4E,$18,$16,$12,$0E,$0C
	$BE64               .byte $0E,$83,$02,$81,$3E,$3E,$82,$46,$1C,$46,$81,$02,$38,$3E,$02,$82
	$BE74               .byte $46,$1C,$82,$48,$48,$81,$3E,$3E,$82,$38,$88,$24,$20,$1C,$48,$46
	$BE84               .byte $42,$3E,$82,$09,$09,$C6,$82,$03,$0C,$FF,$C6,$88,$06,$FF,$ED,$89
	$BE94               .byte $2A,$02,$04,$0C,$02,$04,$08,$02,$30,$26,$02,$30,$FF,$80,$02,$ED
	$BEA4               .byte $89,$0C,$02,$12,$4E,$02,$12,$18,$02,$0E,$08,$02,$0E,$FF,$80,$42
	$BEB4               .byte $02,$48,$02,$1E,$02,$24,$02,$02,$02,$2A,$02,$C6,$8C,$30,$2A,$FF
	$BEC4               .byte $00,$80,$24,$02,$2A,$02,$30,$02,$06,$02,$02,$02,$0C,$02,$C6,$8C
	$BED4               .byte $12,$18,$FF,$80,$56,$54,$52,$50,$81,$02,$80,$5E,$5A,$54,$50,$18
	$BEE4               .byte $14,$10,$0A,$06,$30,$2C,$28,$02,$00,$80,$1A,$18,$16,$14,$81,$02
	$BEF4               .byte $80,$02,$5E,$5A,$54,$50,$18,$14,$10,$0A,$06,$30,$2C,$28,$82,$1C
	$BF04               .byte $02,$1C,$02,$02,$1C,$1C,$00,$81,$10,$0A,$32,$28,$80,$32,$02,$32
	$BF14               .byte $02,$82,$32,$81,$06,$02,$06,$02,$82,$32,$81,$54,$1A,$10,$0A,$80
	$BF24               .byte $10,$02,$10,$02,$82,$10,$81,$16,$02,$16,$02,$82,$0A,$83,$03,$0C
	$BF34               .byte $82,$03,$0C,$0C,$C2,$88,$1C,$1C,$1C,$1C,$1C,$1C,$83,$1C,$80,$04
	$BF44               .byte $04,$2A,$02,$82,$1C,$FF,$81,$4C,$02,$4C,$02,$2A,$02,$4C,$1C,$81
	$BF54               .byte $4C,$02,$4C,$02,$4C,$00,$88,$2E,$2E,$2E,$30,$04,$30,$C4,$80,$2E
	$BF64               .byte $04,$FF,$83,$02,$88,$2E,$2E,$2E,$30,$04,$30,$C4,$80,$2E,$04,$FF
	$BF74               .byte $83,$02,$84,$02,$02,$C2,$88,$3E,$3E,$3E,$42,$46,$42,$84,$3E,$FF
	$BF84               .byte $85,$3E,$81,$3E,$88,$1C,$46,$1C,$81,$02,$3E,$3E,$3E,$82,$34,$02
	$BF94               .byte $C2,$88,$06,$06,$06,$06,$06,$06,$82,$06,$06,$06,$06,$FF,$C2,$81
	$BFA4               .byte $06,$06,$80,$06,$06,$81,$06,$06,$06,$06,$80,$06,$06,$FF,$09,$80
	$BFB4               .byte $10,$02,$10,$02,$10,$02,$0C,$0C,$0C,$02,$0C,$02,$14,$14,$14,$02
	$BFC4               .byte $14,$02,$85,$10,$00,$80,$32,$02,$32,$02,$32,$02,$C2,$32,$32,$32
	$BFD4               .byte $02,$32,$02,$FF,$85,$32,$80,$54,$02,$54,$02,$54,$02,$50,$50,$50
	$BFE4               .byte $02,$50,$02,$56,$56,$56,$02,$56,$02,$85,$54,$C4,$85,$0C,$FF,$FF
	$BFF4               .byte $FF,$FF,$FF,$4C,$58,$F7,$8A,$C0,$00,$C0,$ED,$C0
_Reset	$C000  A9 00:       lda #$00
	$C002  8D 00 20:    sta $2000
	$C005  8D 01 20:    sta $2001
-	$C008  AD 02 20:    lda $2002
	$C00B  10 FB:       bpl -		; $C008
	$C00D  78:          sei 
	$C00E  D8:          cld 
	$C00F  A2 FF:       ldx #$FF
	$C011  9A:          txs 
	$C012  A2 12:       ldx #$12
	$C014  A9 00:       lda #$00
-	$C016  95 00:       sta $00,x
	$C018  E8:          inx 
	$C019  D0 FB:       bne -		; $C016
	$C01B  A2 02:       ldx #$02
-	$C01D  BD FA 07:    lda $07FA,x
	$C020  DD 78 C0:    cmp _data_4078_indexed,x
	$C023  D0 05:       bne +		; $C02A
	$C025  CA:          dex 
	$C026  10 F5:       bpl -		; $C01D
	$C028  30 43:       bmi ++		; $C06D
+	$C02A  A2 00:       ldx #$00
	$C02C  8A:          txa 
-	$C02D  95 00:       sta $00,x
	$C02F  9D 00 07:    sta $0700,x
	$C032  E8:          inx 
	$C033  D0 F8:       bne -		; $C02D
	$C035  A9 32:       lda #$32
	$C037  85 15:       sta $15
-	$C039  A9 32:       lda #$32
	$C03B  20 D4 D6:    jsr _func_56D4
	$C03E  A9 00:       lda #$00
	$C040  85 46:       sta $46
	$C042  20 6F C5:    jsr _func_456F
	$C045  C6 15:       dec $15
	$C047  D0 F0:       bne -		; $C039
	$C049  A2 0E:       ldx #$0E
-	$C04B  BD 7B C0:    lda _data_407B_indexed,x
	$C04E  9D 29 06:    sta $0629,x
	$C051  CA:          dex 
	$C052  10 F7:       bpl -		; $C04B
	$C054  A2 04:       ldx #$04
-	$C056  A9 00:       lda #$00
	$C058  95 03:       sta $03,x
	$C05A  CA:          dex 
	$C05B  10 F9:       bpl -		; $C056
	$C05D  A9 00:       lda #$00
	$C05F  20 D4 D6:    jsr _func_56D4
	$C062  A2 02:       ldx #$02
-	$C064  BD 78 C0:    lda _data_4078_indexed,x
	$C067  9D FA 07:    sta $07FA,x
	$C06A  CA:          dex 
	$C06B  10 F7:       bpl -		; $C064
++	$C06D  A9 1E:       lda #$1E
	$C06F  85 01:       sta $01
	$C071  A9 90:       lda #$90
	$C073  85 00:       sta $00
	$C075  4C CA F1:    jmp _loc_71CA
;------------------------------------------
_data_4078_indexed
	$C078               .byte $48,$41,$4C
_data_407B_indexed
	$C07B               .byte $00,$00,$00,$01,$00,$00,$00,$00,$01,$00,$00,$00,$05,$02,$00
_NMI	$C08A  48:          pha 
	$C08B  8A:           txa 
	$C08C  48:           pha 
	$C08D  98:            tya 
	$C08E  48:            pha 
	$C08F  A9 00:          lda #$00
	$C091  8D 03 20:       sta $2003
	$C094  A9 02:          lda #$02
	$C096  8D 14 40:       sta $4014
	$C099  A5 52:          lda $52
	$C09B  C5 53:          cmp $53
	$C09D  F0 03:          beq +		; $C0A2
	$C09F  20 72 C1:       jsr _func_4172
+	$C0A2  20 03 D6:       jsr _func_5603
	$C0A5  20 8E D7:       jsr _func_578E
	$C0A8  E6 19:          inc $19
	$C0AA  A9 20:          lda #$20
	$C0AC  8D 06 20:       sta $2006
	$C0AF  A9 00:          lda #$00
	$C0B1  8D 06 20:       sta $2006
	$C0B4  A9 00:          lda #$00
	$C0B6  8D 05 20:       sta $2005
	$C0B9  8D 05 20:       sta $2005
	$C0BC  20 F7 FF:       jsr _func_7FF7
	$C0BF  A9 01:          lda #$01
	$C0C1  85 02:          sta $02
	$C0C3  A5 16:          lda $16
	$C0C5  F0 20:          beq +		; $C0E7
-	$C0C7  AD 02 20:       lda $2002
	$C0CA  30 FB:          bmi -		; $C0C7
	$C0CC  A2 04:          ldx #$04
	$C0CE  A0 C6:          ldy #$C6
-	$C0D0  88:             dey 
	$C0D1  D0 FD:          bne -		; $C0D0
	$C0D3  CA:             dex 
	$C0D4  D0 FA:          bne -		; $C0D0
	$C0D6  A5 18:          lda $18
	$C0D8  05 00:          ora $00
	$C0DA  8D 00 20:       sta $2000
	$C0DD  A5 17:          lda $17
	$C0DF  8D 05 20:       sta $2005
	$C0E2  A9 00:          lda #$00
	$C0E4  8D 05 20:       sta $2005
+	$C0E7  68:            pla 
	$C0E8  A8:            tay 
	$C0E9  68:           pla 
	$C0EA  AA:           tax 
	$C0EB  68:          pla 
	$C0EC  40:          rti 
;------------------------------------------
_IRQ	$C0ED  4C ED C0:    jmp _IRQ		; $C0ED -> _IRQ
;------------------------------------------
_func_40F0
	$C0F0  A5 00:       lda $00
	$C0F2  29 7F:       and #$7F
-	$C0F4  8D 00 20:    sta $2000
	$C0F7  85 00:       sta $00
	$C0F9  60:          rts 
;------------------------------------------
_func_40FA
	$C0FA  A5 00:       lda $00
	$C0FC  09 80:       ora #$80
	$C0FE  D0 F4:       bne -		; $C0F4
_func_4100
	$C100  A9 00:       lda #$00
-	$C102  48:          pha 
	$C103  20 5B F4:     jsr _func_745B
	$C106  68:          pla 
	$C107  8D 01 20:    sta $2001
	$C10A  60:          rts 
;------------------------------------------
_func_410B
	$C10B  A5 01:       lda $01
	$C10D  D0 F3:       bne -		; $C102
_func_410F
	$C10F  20 4A C1:    jsr _func_414A
	$C112  A0 00:       ldy #$00
-	$C114  B9 57 00:    lda $0057,y
	$C117  9D 00 03:    sta $0300,x
	$C11A  E8:          inx 
	$C11B  C8:          iny 
	$C11C  C4 56:       cpy $56
	$C11E  D0 F4:       bne -		; $C114
	$C120  86 53:       stx $53
	$C122  60:          rts 
;------------------------------------------
_func_4123
	$C123  A9 57:       lda #$57
	$C125  A0 00:       ldy #$00
_func_4127
	$C127  85 21:       sta $21
	$C129  84 22:       sty $22
	$C12B  8A:          txa 
	$C12C  48:          pha 
	$C12D  A0 02:        ldy #$02
	$C12F  B1 21:        lda ($21),y
	$C131  18:           clc 
	$C132  69 03:        adc #$03
	$C134  85 12:        sta $12
	$C136  A6 53:        ldx $53
	$C138  A0 00:        ldy #$00
-	$C13A  B1 21:        lda ($21),y
	$C13C  9D 00 03:     sta $0300,x
	$C13F  E8:           inx 
	$C140  C8:           iny 
	$C141  C4 12:        cpy $12
	$C143  D0 F5:        bne -		; $C13A
	$C145  86 53:        stx $53
	$C147  68:          pla 
	$C148  AA:          tax 
	$C149  60:          rts 
;------------------------------------------
_func_414A
	$C14A  A6 53:       ldx $53
	$C14C  A9 00:       lda #$00
	$C14E  85 12:       sta $12
	$C150  A5 55:       lda $55
	$C152  0A:          asl a
	$C153  0A:          asl a
	$C154  0A:          asl a
	$C155  0A:          asl a
	$C156  26 12:       rol $12
	$C158  0A:          asl a
	$C159  26 12:       rol $12
	$C15B  05 54:       ora $54
	$C15D  48:          pha 
	$C15E  A5 12:        lda $12
	$C160  09 20:        ora #$20
	$C162  9D 00 03:     sta $0300,x
	$C165  E8:           inx 
	$C166  68:          pla 
	$C167  9D 00 03:    sta $0300,x
	$C16A  E8:          inx 
	$C16B  A5 56:       lda $56
	$C16D  9D 00 03:    sta $0300,x
	$C170  E8:          inx 
	$C171  60:          rts 
;------------------------------------------
_func_4172
	$C172  98:          tya 
	$C173  48:          pha 
	$C174  8A:           txa 
	$C175  48:           pha 
	$C176  20 7E C1:      jsr _func_417E
	$C179  68:           pla 
	$C17A  AA:           tax 
	$C17B  68:          pla 
	$C17C  A8:          tay 
	$C17D  60:          rts 
;------------------------------------------
_func_417E
	$C17E  A6 52:       ldx $52
	$C180  BD 00 03:    lda $0300,x
	$C183  E8:          inx 
	$C184  85 50:       sta $50
	$C186  8D 06 20:    sta $2006
	$C189  BD 00 03:    lda $0300,x
	$C18C  E8:          inx 
	$C18D  8D 06 20:    sta $2006
	$C190  BC 00 03:    ldy $0300,x
	$C193  E8:          inx 
-	$C194  BD 00 03:    lda $0300,x
	$C197  E8:          inx 
	$C198  8D 07 20:    sta $2007
	$C19B  88:          dey 
	$C19C  D0 F6:       bne -		; $C194
	$C19E  A5 50:       lda $50
	$C1A0  C9 3F:       cmp #$3F
	$C1A2  D0 10:       bne +		; $C1B4
	$C1A4  A9 3F:       lda #$3F
	$C1A6  8D 06 20:    sta $2006
	$C1A9  A9 00:       lda #$00
	$C1AB  8D 06 20:    sta $2006
	$C1AE  8D 06 20:    sta $2006
	$C1B1  8D 06 20:    sta $2006
+	$C1B4  86 52:       stx $52
	$C1B6  E4 53:       cpx $53
	$C1B8  D0 C4:       bne _func_417E
	$C1BA  60:          rts 
;------------------------------------------
_loc_41BB
	$C1BB  A9 20:       lda #$20
	$C1BD  85 F2:       sta $F2
	$C1BF  20 1D C5:    jsr _func_451D
	$C1C2  20 2F C5:    jsr _func_452F
	$C1C5  A9 FF:       lda #$FF
	$C1C7  85 CD:       sta $CD
	$C1C9  A9 A3:       lda #<_data_44A3
	$C1CB  85 23:       sta $23
	$C1CD  A9 C4:       lda #>_data_44A3
	$C1CF  85 24:       sta $24
	$C1D1  A9 80:       lda #$80
	$C1D3  85 91:       sta $91
	$C1D5  8D 88 04:    sta $0488
	$C1D8  A9 70:       lda #$70
	$C1DA  85 9A:       sta $9A
	$C1DC  20 40 CD:    jsr _func_4D40
	$C1DF  A9 00:       lda #$00
	$C1E1  85 41:       sta $41
	$C1E3  85 C9:       sta $C9
	$C1E5  85 CA:       sta $CA
	$C1E7  85 BA:       sta $BA
	$C1E9  85 C5:       sta $C5
	$C1EB  85 C8:       sta $C8
	$C1ED  20 9B F4:    jsr _func_749B
	$C1F0  A2 13:       ldx #$13
-	$C1F2  A9 FF:       lda #$FF
	$C1F4  9D 30 05:    sta $0530,x
	$C1F7  A9 F0:       lda #$F0
	$C1F9  9D A4 04:    sta $04A4,x
	$C1FC  CA:          dex 
	$C1FD  10 F3:       bpl -		; $C1F2
--	$C1FF  20 66 F4:    jsr _func_7466
	$C202  20 87 E6:    jsr _func_6687
	$C205  A5 C5:       lda $C5
	$C207  D0 03:       bne +		; $C20C
	$C209  20 EF C6:    jsr _func_46EF
+	$C20C  A5 19:       lda $19
	$C20E  4A:          lsr a
	$C20F  B0 03:       bcs +		; $C214
	$C211  4C C6 C2:    jmp +++		; $C2C6

+	$C214  A5 C5:       lda $C5
	$C216  F0 05:       beq +		; $C21D
	$C218  C6 C5:       dec $C5
	$C21A  4C C6 C2:    jmp +++		; $C2C6

+	$C21D  A5 17:       lda $17
	$C21F  D0 06:       bne +		; $C227
	$C221  A5 18:       lda $18
	$C223  49 01:       eor #$01
	$C225  85 18:       sta $18
+	$C227  C6 17:       dec $17
	$C229  AD 88 04:    lda $0488
	$C22C  F0 15:       beq ++		; $C243
	$C22E  EE 88 04:    inc $0488
	$C231  AD 88 04:    lda $0488
	$C234  C9 F0:       cmp #$F0
	$C236  90 05:       bcc +		; $C23D
	$C238  A9 00:       lda #$00
	$C23A  8D 88 04:    sta $0488
+	$C23D  A5 BD:       lda $BD
	$C23F  F0 02:       beq ++		; $C243
	$C241  E6 91:       inc $91
++	$C243  A2 07:       ldx #$07
-	$C245  BD 5D 05:    lda $055D,x
	$C248  30 19:       bmi +		; $C263
	$C24A  FE 67 05:    inc $0567,x
	$C24D  BD 67 05:    lda $0567,x
	$C250  C9 F8:       cmp #$F8
	$C252  D0 0F:       bne +		; $C263
	$C254  A9 FF:       lda #$FF
	$C256  9D 5D 05:    sta $055D,x
	$C259  A9 F0:       lda #$F0
	$C25B  9D 7B 05:    sta $057B,x
	$C25E  A9 00:       lda #$00
	$C260  8D CE 05:    sta $05CE
+	$C263  CA:          dex 
	$C264  10 DF:       bpl -		; $C245
	$C266  A2 13:       ldx #$13
-	$C268  BD 30 05:    lda $0530,x
	$C26B  30 12:       bmi +		; $C27F
	$C26D  FE 90 04:    inc $0490,x
	$C270  BD 90 04:    lda $0490,x
	$C273  C9 F8:       cmp #$F8
	$C275  90 08:       bcc +		; $C27F
	$C277  A9 F0:       lda #$F0
	$C279  9D A4 04:    sta $04A4,x
	$C27C  9D 30 05:    sta $0530,x
+	$C27F  CA:          dex 
	$C280  10 E6:       bpl -		; $C268
	$C282  A5 17:       lda $17
	$C284  29 07:       and #$07
	$C286  D0 3E:       bne +++		; $C2C6
	$C288  A6 88:       ldx $88
	$C28A  CA:          dex 
	$C28B  30 39:       bmi +++		; $C2C6
	$C28D  A9 00:       lda #$00
	$C28F  85 3E:       sta $3E
	$C291  A9 01:       lda #$01
	$C293  20 D4 D6:    jsr _func_56D4
	$C296  E6 C9:       inc $C9
	$C298  A5 C9:       lda $C9
	$C29A  29 1F:       and #$1F
	$C29C  D0 14:       bne +		; $C2B2
	$C29E  E6 CA:       inc $CA
	$C2A0  A5 CA:       lda $CA
	$C2A2  C9 0A:       cmp #$0A
	$C2A4  D0 0C:       bne +		; $C2B2
	$C2A6  A9 02:       lda #$02
	$C2A8  85 CA:       sta $CA
	$C2AA  A4 BA:       ldy $BA
	$C2AC  C8:          iny 
	$C2AD  98:          tya 
	$C2AE  29 03:       and #$03
	$C2B0  85 BA:       sta $BA
+	$C2B2  A6 CA:       ldx $CA
	$C2B4  BD B5 C3:    lda _data_43B5_indexed,x
	$C2B7  0A:          asl a
	$C2B8  A8:          tay 
	$C2B9  B9 AB C3:    lda _DataPointerTable_43AB,y
	$C2BC  85 25:       sta $25
	$C2BE  B9 AC C3:    lda _DataPointerTable_43AB+1,y
	$C2C1  85 26:       sta $26
	$C2C3  20 A8 C3:    jsr _func_43A8
+++	$C2C6  A2 07:       ldx #$07
-	$C2C8  BD 5D 05:    lda $055D,x
	$C2CB  30 18:       bmi +		; $C2E5
	$C2CD  20 C4 CE:    jsr _func_4EC4
	$C2D0  AD CD 05:    lda $05CD
	$C2D3  F0 10:       beq +		; $C2E5
	$C2D5  CE CD 05:    dec $05CD
	$C2D8  EE CE 05:    inc $05CE
	$C2DB  8A:          txa 
	$C2DC  48:          pha 
	$C2DD  AD 59 05:     lda $0559
	$C2E0  20 D4 D6:     jsr _func_56D4
	$C2E3  68:          pla 
	$C2E4  AA:          tax 
+	$C2E5  20 25 CE:    jsr _func_4E25
	$C2E8  CA:          dex 
	$C2E9  10 DD:       bpl -		; $C2C8
	$C2EB  A2 13:       ldx #$13
-	$C2ED  BD 30 05:    lda $0530,x
	$C2F0  30 1B:       bmi +++		; $C30D
	$C2F2  A5 C5:       lda $C5
	$C2F4  D0 14:       bne ++		; $C30A
	$C2F6  20 AC C9:    jsr _func_49AC
	$C2F9  BD A4 04:    lda $04A4,x
	$C2FC  C9 02:       cmp #$02
	$C2FE  B0 03:       bcs +		; $C303
	$C300  20 45 CA:    jsr _func_4A45
+	$C303  C9 D8:       cmp #$D8
	$C305  90 03:       bcc ++		; $C30A
	$C307  20 45 CA:    jsr _func_4A45
++	$C30A  20 12 CB:    jsr _func_4B12
+++	$C30D  A5 19:       lda $19
	$C30F  29 07:       and #$07
	$C311  4A:          lsr a
	$C312  A8:          tay 
	$C313  B9 D3 C9:    lda _data_49D3_indexed,y
	$C316  48:          pha 
	$C317  A5 19:        lda $19
	$C319  4A:           lsr a
	$C31A  8A:           txa 
	$C31B  90 06:        bcc +		; $C323
	$C31D  85 12:        sta $12
	$C31F  A9 13:        lda #$13
	$C321  E5 12:        sbc $12
+	$C323  0A:           asl a
	$C324  0A:           asl a
	$C325  A8:           tay 
	$C326  68:          pla 
	$C327  99 B1 02:    sta $02B1,y
	$C32A  BD A4 04:    lda $04A4,x
	$C32D  99 B0 02:    sta $02B0,y
	$C330  BD 90 04:    lda $0490,x
	$C333  99 B3 02:    sta $02B3,y
	$C336  A9 00:       lda #$00
	$C338  99 B2 02:    sta $02B2,y
	$C33B  CA:          dex 
	$C33C  10 AF:       bpl -		; $C2ED
	$C33E  AD CE 05:    lda $05CE
	$C341  C9 14:       cmp #$14
	$C343  90 20:       bcc +		; $C365
	$C345  E6 47:       inc $47
	$C347  A9 00:       lda #$00
	$C349  20 D4 D6:    jsr _func_56D4
	$C34C  C6 47:       dec $47
	$C34E  A9 10:       lda #$10
	$C350  85 F2:       sta $F2
	$C352  E6 C8:       inc $C8
	$C354  20 E3 D3:    jsr _func_53E3
	$C357  20 1D C5:    jsr _func_451D
	$C35A  C6 C8:       dec $C8
	$C35C  A2 64:       ldx #$64
	$C35E  20 54 F4:    jsr _func_7454
	$C361  A9 20:       lda #$20
	$C363  85 F2:       sta $F2
+	$C365  A2 F0:       ldx #$F0
	$C367  AD 88 04:    lda $0488
	$C36A  F0 02:       beq +		; $C36E
	$C36C  A2 88:       ldx #$88
+	$C36E  8E 00 02:    stx $0200
	$C371  8E 04 02:    stx $0204
	$C374  8D 03 02:    sta $0203
	$C377  18:          clc 
	$C378  69 08:       adc #$08
	$C37A  8D 07 02:    sta $0207
	$C37D  A5 19:       lda $19
	$C37F  29 03:       and #$03
	$C381  8D 02 02:    sta $0202
	$C384  8D 06 02:    sta $0206
	$C387  A2 E3:       ldx #$E3
	$C389  8E 01 02:    stx $0201
	$C38C  E8:          inx 
	$C38D  8E 05 02:    stx $0205
	$C390  A5 88:       lda $88
	$C392  30 03:       bmi +		; $C397
	$C394  4C FF C1:    jmp --		; $C1FF

+	$C397  20 6F C5:    jsr _func_456F
	$C39A  A9 01:       lda #$01
	$C39C  85 F0:       sta $F0
	$C39E  20 5B F4:    jsr _func_745B
	$C3A1  A9 02:       lda #$02
	$C3A3  85 F2:       sta $F2
	$C3A5  4C 60 F3:    jmp _loc_7360
;------------------------------------------
_func_43A8
	$C3A8  6C 25 00:    jmp ($0025)
_DataPointerTable_43AB
	$C3AB  BF C3:       .word (DataTableEntry_43BF) ;C3BF (43BF) ([8:0][A:1][C:2][E:3])
	$C3AD  ED C3:       .word (DataTableEntry_43ED) ;C3ED (43ED) ([8:0][A:1][C:2][E:3])
	$C3AF  34 C4:       .word (DataTableEntry_4434) ;C434 (4434) ([8:0][A:1][C:2][E:3])
	$C3B1  55 C4:       .word (DataTableEntry_4455) ;C455 (4455) ([8:0][A:1][C:2][E:3])
	$C3B3  54 C4:       .word (DataTableEntry_4454) ;C454 (4454) ([8:0][A:1][C:2][E:3])
_data_43B5_indexed
	$C3B5  00 00:       .word ($00) ;0 (0) ([8:0][A:1][C:2][E:3])
	$C3B7  02 02:       .word ($0202) ;202 (0) ([8:0][A:1][C:2][E:3])
	$C3B9  02 02:       .word ($0202) ;202 (0) ([8:0][A:1][C:2][E:3])
	$C3BB  02 04:       .word ($0402) ;402 (0) ([8:0][A:1][C:2][E:3])
	$C3BD  03 01:       .word ($0103) ;103 (0) ([8:0][A:1][C:2][E:3])
DataTableEntry_43BF
	$C3BF               .byte $A0,$00,$B1,$23,$E6,$23,$D0,$02,$E6,$24,$AA,$F0,$20,$0A,$0A,$0A
	$C3CF               .byte $85,$15,$A9,$00,$85,$14,$8A,$29,$C0,$C9,$80,$D0,$06,$20,$61,$C4
	$C3DF               .byte $4C,$BF,$C3,$C9,$00,$D0,$06,$20,$7C,$C4,$4C,$BF,$C3,$60
DataTableEntry_43ED
	$C3ED               .byte $20,$A9,$F1,$29,$7F,$C9,$04,$90,$0C,$C9,$18,$B0,$08,$0A,$0A,$0A
	$C3FD               .byte $85,$15,$20,$61,$C4,$20,$A9,$F1,$29,$3F,$C9,$02,$90,$24,$C9,$18
	$C40D               .byte $B0,$20,$0A,$0A,$0A,$85,$15,$20,$A9,$F1,$29,$3F,$A6,$BA,$7D,$30
	$C41D               .byte $C4,$85,$14,$20,$7C,$C4,$20,$A9,$F1,$4A,$90,$D9,$20,$45,$CA,$4C
	$C42D               .byte $02,$C4,$60,$20,$30,$40,$60
DataTableEntry_4434
	$C434               .byte $20,$A9,$F1,$29,$CF,$D0,$B2,$A4,$89,$C8,$D0,$AD,$A9,$E6,$85,$9B
	$C444               .byte $A5,$1B,$29,$7F,$69,$40,$85,$92,$A9,$80,$85,$89,$A9,$00,$85,$80
DataTableEntry_4454
	$C454               .byte $60
DataTableEntry_4455
	$C455               .byte $20,$02,$C4,$20,$A9,$F1,$29,$7F,$9D,$08,$05,$60,$A2,$07,$BD,$5D
	$C465               .byte $05,$30,$04,$CA,$10,$F8,$60,$A9,$01,$9D,$5D,$05,$A9,$00,$9D,$67
	$C475               .byte $05,$A5,$15,$9D,$7B,$05,$60,$A2,$13,$BD,$30,$05,$30,$04,$CA,$10
	$C485               .byte $F8,$60,$A9,$00,$9D,$30,$05,$9D,$90,$04,$9D,$F4,$04,$9D,$08,$05
	$C495               .byte $9D,$E0,$04,$A5,$14,$9D,$1C,$05,$A5,$15,$9D,$A4,$04,$60
_data_44A3
	$C4A3               .byte $00,$00,$09,$00,$08,$8C,$00,$07,$18,$00,$18,$00,$19,$00,$1A,$00
	$C4B3               .byte $84,$94,$1A,$00,$1A,$00,$1A,$00,$0B,$12,$00,$0C,$13,$00,$0D,$14
	$C4C3               .byte $00,$14,$00,$00,$90,$00,$07,$00,$07,$8C,$96,$00,$08,$00,$09,$00
	$C4D3               .byte $00,$18,$00,$17,$00,$16,$00,$00,$00,$00,$00,$00,$8A,$90,$00,$00
	$C4E3               .byte $00,$08,$00,$09,$98,$00,$0A,$00,$00,$00,$86,$8A,$15,$00,$14,$00
	$C4F3               .byte $8E,$13,$00,$00,$03,$0D,$00,$0D,$0E,$00,$0C,$0D,$00,$0D,$19,$00
	$C503               .byte $86,$92,$00,$00,$98,$00,$00,$0A,$12,$00,$09,$13,$00,$08,$14,$00
	$C513               .byte $07,$15,$00,$07,$16,$00,$07,$00,$00,$00
_func_451D
	$C51D  20 D8 D0:    jsr _func_50D8
	$C520  0E 59 05:    asl $0559
	$C523  AD 59 05:    lda $0559
	$C526  0A:          asl a
	$C527  0A:          asl a
	$C528  6D 59 05:    adc $0559
	$C52B  8D 59 05:    sta $0559
	$C52E  60:          rts 
;------------------------------------------
_func_452F
	$C52F  A9 00:       lda #$00
	$C531  85 12:       sta $12
--	$C533  A5 12:       lda $12
	$C535  0A:          asl a
	$C536  0A:          asl a
	$C537  65 12:       adc $12
	$C539  85 1D:       sta $1D
	$C53B  A9 07:       lda #$07
	$C53D  85 1E:       sta $1E
	$C53F  A0 04:       ldy #$04
-	$C541  B1 1D:       lda ($1D),y
	$C543  D9 03 00:    cmp $0003,y
	$C546  90 11:       bcc ++		; $C559
	$C548  D0 05:       bne +		; $C54F
	$C54A  88:          dey 
	$C54B  10 F4:       bpl -		; $C541
	$C54D  30 0A:       bmi ++		; $C559
+	$C54F  E6 12:       inc $12
	$C551  A5 12:       lda $12
	$C553  C9 32:       cmp #$32
	$C555  D0 DC:       bne --		; $C533
	$C557  C6 12:       dec $12
++	$C559  E6 12:       inc $12
	$C55B  A5 12:       lda $12
	$C55D  48:          pha 
	$C55E  85 43:        sta $43
	$C560  A0 0A:        ldy #$0A
	$C562  20 72 D7:     jsr _func_5772
	$C565  85 4A:        sta $4A
	$C567  A5 43:        lda $43
	$C569  85 49:        sta $49
	$C56B  68:          pla 
	$C56C  85 12:       sta $12
	$C56E  60:          rts 
;------------------------------------------
_func_456F
	$C56F  20 2F C5:    jsr _func_452F
	$C572  C6 12:       dec $12
	$C574  A9 31:       lda #$31
	$C576  38:          sec 
	$C577  E5 12:       sbc $12
	$C579  85 13:       sta $13
	$C57B  0A:          asl a
	$C57C  0A:          asl a
	$C57D  65 13:       adc $13
	$C57F  A8:          tay 
	$C580  A5 12:       lda $12
	$C582  0A:          asl a
	$C583  0A:          asl a
	$C584  65 12:       adc $12
	$C586  85 1D:       sta $1D
	$C588  18:          clc 
	$C589  69 05:       adc #$05
	$C58B  85 1F:       sta $1F
	$C58D  A9 07:       lda #$07
	$C58F  85 1E:       sta $1E
	$C591  85 20:       sta $20
	$C593  98:          tya 
	$C594  F0 0C:       beq +		; $C5A2
	$C596  88:          dey 
-	$C597  B1 1D:       lda ($1D),y
	$C599  91 1F:       sta ($1F),y
	$C59B  88:          dey 
	$C59C  D0 F9:       bne -		; $C597
	$C59E  B1 1D:       lda ($1D),y
	$C5A0  91 1F:       sta ($1F),y
+	$C5A2  A0 04:       ldy #$04
-	$C5A4  B9 03 00:    lda $0003,y
	$C5A7  91 1D:       sta ($1D),y
	$C5A9  88:          dey 
	$C5AA  10 F8:       bpl -		; $C5A4
	$C5AC  60:          rts 
;------------------------------------------
_data_45AD_indexed
	$C5AD               .byte $01,$02,$03,$03
_data_45B1_indexed
	$C5B1               .byte $02,$01,$FF,$03,$04,$05,$06,$FF
--	$C5B9  AD 8D 04:    lda $048D
	$C5BC  4A:          lsr a
	$C5BD  4A:          lsr a
	$C5BE  4A:          lsr a
	$C5BF  AA:          tax 
	$C5C0  AD 8A 04:    lda $048A
	$C5C3  D0 06:       bne +		; $C5CB
	$C5C5  BD AD C5:    lda _data_45AD_indexed,x
	$C5C8  4C CE C5:    jmp ++		; $C5CE

+	$C5CB  BD B1 C5:    lda _data_45B1_indexed,x
++	$C5CE  85 87:       sta $87
	$C5D0  A2 08:       ldx #$08
	$C5D2  20 9A E3:    jsr _func_639A
	$C5D5  AD 8C 04:    lda $048C
	$C5D8  F0 2F:       beq ++++		; $C609 -> rts
	$C5DA  AE 8B 04:    ldx $048B
	$C5DD  AD 8D 04:    lda $048D
	$C5E0  C9 20:       cmp #$20
	$C5E2  D0 06:       bne +		; $C5EA
	$C5E4  A9 FF:       lda #$FF
	$C5E6  95 88:       sta $88,x
	$C5E8  30 1C:       bmi +++		; $C606

+	$C5EA  B0 1D:       bcs ++++		; $C609 -> rts
	$C5EC  AD 50 04:    lda $0450
	$C5EF  D0 07:       bne +		; $C5F8
	$C5F1  A5 99:       lda $99
	$C5F3  18:          clc 
	$C5F4  69 04:       adc #$04
	$C5F6  D0 05:       bne ++		; $C5FD
+	$C5F8  A5 99:       lda $99
	$C5FA  38:          sec 
	$C5FB  E9 04:       sbc #$04
++	$C5FD  95 91:       sta $91,x
	$C5FF  A5 A2:       lda $A2
	$C601  38:          sec 
	$C602  E9 0A:       sbc #$0A
	$C604  95 9A:       sta $9A,x
+++	$C606  20 9A E3:    jsr _func_639A
++++	$C609  60:          rts 
;------------------------------------------
_func_460A
	$C60A  A9 FF:       lda #$FF
	$C60C  8D 8B 04:    sta $048B
	$C60F  A2 07:       ldx #$07
-	$C611  B5 88:       lda $88,x
	$C613  30 0C:       bmi +		; $C621
	$C615  B5 9A:       lda $9A,x
	$C617  C9 B4:       cmp #$B4
	$C619  90 06:       bcc +		; $C621
	$C61B  B5 91:       lda $91,x
	$C61D  C5 99:       cmp $99
	$C61F  F0 04:       beq ++		; $C625
+	$C621  CA:          dex 
	$C622  10 ED:       bpl -		; $C611
	$C624  60:          rts 

++	$C625  8E 8B 04:    stx $048B
	$C628  BD 48 04:    lda $0448,x
	$C62B  8D 50 04:    sta $0450
	$C62E  A9 00:       lda #$00
	$C630  8D 8A 04:    sta $048A
	$C633  8D 8D 04:    sta $048D
	$C636  8D 8C 04:    sta $048C
	$C639  8D 89 04:    sta $0489
	$C63C  A9 DC:       lda #$DC
	$C63E  85 A2:       sta $A2
	$C640  60:          rts 
;------------------------------------------
_func_4641
	$C641  E6 99:       inc $99
	$C643  A5 99:       lda $99
	$C645  C9 B1:       cmp #$B1
	$C647  90 04:       bcc +		; $C64D -> rts
	$C649  A9 40:       lda #$40
	$C64B  85 99:       sta $99
+	$C64D  60:          rts 
;------------------------------------------
_func_464E
	$C64E  AD 89 04:    lda $0489
	$C651  D0 12:       bne +		; $C665
	$C653  C6 A2:       dec $A2
	$C655  A5 A2:       lda $A2
	$C657  C9 C4:       cmp #$C4
	$C659  B0 0C:       bcs ++		; $C667
	$C65B  E6 A2:       inc $A2
	$C65D  EE 8A 04:    inc $048A
	$C660  EE 89 04:    inc $0489
	$C663  D0 02:       bne ++		; $C667
+	$C665  E6 A2:       inc $A2
++	$C667  EE 8D 04:    inc $048D
	$C66A  AD 8D 04:    lda $048D
	$C66D  C9 18:       cmp #$18
	$C66F  D0 28:       bne +		; $C699
	$C671  AE 8B 04:    ldx $048B
	$C674  B5 88:       lda $88,x
	$C676  30 21:       bmi +		; $C699
	$C678  B5 9A:       lda $9A,x
	$C67A  18:          clc 
	$C67B  69 10:       adc #$10
	$C67D  C5 A2:       cmp $A2
	$C67F  90 18:       bcc +		; $C699
	$C681  BC 51 04:    ldy $0451,x
	$C684  B9 AE C6:    lda _data_46AE_indexed,y
	$C687  9D 51 04:    sta $0451,x
	$C68A  A9 00:       lda #$00
	$C68C  95 7F:       sta $7F,x
	$C68E  95 88:       sta $88,x
	$C690  A5 F2:       lda $F2
	$C692  09 40:       ora #$40
	$C694  85 F2:       sta $F2
	$C696  EE 8C 04:    inc $048C
+	$C699  AD 8A 04:    lda $048A
	$C69C  F0 0F:       beq ++		; $C6AD -> rts
	$C69E  AD 8D 04:    lda $048D
	$C6A1  C9 28:       cmp #$28
	$C6A3  F0 04:       beq +		; $C6A9
	$C6A5  C9 30:       cmp #$30
	$C6A7  D0 04:       bne ++		; $C6AD -> rts
+	$C6A9  A9 CC:       lda #$CC
	$C6AB  85 A2:       sta $A2
++	$C6AD  60:          rts 
;------------------------------------------
_data_46AE_indexed
	$C6AE               .byte $08,$09,$0A,$0B,$08,$09,$0A,$0B,$08,$09,$0A,$0B
_func_46BA
	$C6BA  AD 89 04:    lda $0489
	$C6BD  D0 2F:       bne +++		; $C6EE -> rts
	$C6BF  AE 8B 04:    ldx $048B
	$C6C2  B5 88:       lda $88,x
	$C6C4  30 10:       bmi +		; $C6D6
	$C6C6  B5 9A:       lda $9A,x
	$C6C8  C9 B4:       cmp #$B4
	$C6CA  90 0A:       bcc +		; $C6D6
	$C6CC  B5 91:       lda $91,x
	$C6CE  C9 40:       cmp #$40
	$C6D0  90 04:       bcc +		; $C6D6
	$C6D2  C9 B1:       cmp #$B1
	$C6D4  90 0E:       bcc ++		; $C6E4
+	$C6D6  A9 30:       lda #$30
	$C6D8  38:          sec 
	$C6D9  ED 8D 04:    sbc $048D
	$C6DC  8D 8D 04:    sta $048D
	$C6DF  EE 89 04:    inc $0489
	$C6E2  D0 0A:       bne +++		; $C6EE -> rts
++	$C6E4  B5 91:       lda $91,x
	$C6E6  85 99:       sta $99
	$C6E8  BD 48 04:    lda $0448,x
	$C6EB  8D 50 04:    sta $0450
+++	$C6EE  60:          rts 
;------------------------------------------
_func_46EF
	$C6EF  A5 87:       lda $87
	$C6F1  10 10:       bpl ++		; $C703
	$C6F3  20 41 C6:    jsr _func_4641
	$C6F6  20 0A C6:    jsr _func_460A
	$C6F9  AD 8B 04:    lda $048B
	$C6FC  10 01:       bpl +		; $C6FF
	$C6FE  60:          rts 

+	$C6FF  A9 40:       lda #$40
	$C701  85 F3:       sta $F3
++	$C703  20 BA C6:    jsr _func_46BA
	$C706  20 4E C6:    jsr _func_464E
	$C709  4C B9 C5:    jmp --		; $C5B9
;------------------------------------------
_func_470C
	$C70C  A2 01:       ldx #$01
-	$C70E  A9 FF:       lda #$FF
	$C710  9D 30 05:    sta $0530,x
	$C713  9D 44 05:    sta $0544,x
	$C716  CA:          dex 
	$C717  10 F5:       bpl -		; $C70E
	$C719  20 70 C7:    jsr _func_4770
_func_471C
	$C71C  A6 3C:       ldx $3C
	$C71E  E0 18:       cpx #$18
	$C720  90 02:       bcc +		; $C724
	$C722  A2 18:       ldx #$18
+	$C724  BD 3E C7:    lda _data_473E_indexed,x
	$C727  85 BA:       sta $BA
	$C729  BD 57 C7:    lda _data_4757_indexed,x
	$C72C  85 B8:       sta $B8
	$C72E  A9 F0:       lda #$F0
	$C730  8D E0 02:    sta $02E0
	$C733  8D E4 02:    sta $02E4
	$C736  8D E8 02:    sta $02E8
	$C739  A9 03:       lda #$03
	$C73B  4C 4C C8:    jmp _func_484C
;------------------------------------------
_data_473E_indexed
	$C73E               .byte $00,$00,$00,$00,$00,$00,$00,$00,$00,$00,$01,$01,$01,$01,$01,$01
	$C74E               .byte $02,$01,$01,$01,$01,$01,$01,$01,$01
_data_4757_indexed
	$C757               .byte $0F,$0F,$0C,$0C,$0C,$0C,$0A,$0A,$0A,$0A,$0C,$0C,$0A,$0A,$0A,$08
	$C767               .byte $0A,$0A,$08,$08,$08,$08,$08,$08,$05
_func_4770
	$C770  A5 A3:       lda $A3
	$C772  10 03:       bpl +		; $C777
--	$C774  85 A4:       sta $A4
	$C776  60:          rts 

+	$C777  20 A9 F1:    jsr _func_71A9
-	$C77A  C5 A3:       cmp $A3
	$C77C  90 F6:       bcc --		; $C774
	$C77E  F0 F4:       beq --		; $C774
	$C780  18:          clc 
	$C781  E5 A3:       sbc $A3
	$C783  4C 7A C7:    jmp -		; $C77A
;------------------------------------------
_func_4786
	$C786  A5 19:       lda $19
	$C788  29 7F:       and #$7F
	$C78A  F0 01:       beq +		; $C78D
-	$C78C  60:          rts 

+	$C78D  C6 B8:       dec $B8
	$C78F  D0 FB:       bne -		; $C78C -> rts
	$C791  A2 00:       ldx #$00
	$C793  BD 30 05:    lda $0530,x
	$C796  30 0B:       bmi +		; $C7A3
	$C798  E8:          inx 
	$C799  BD 30 05:    lda $0530,x
	$C79C  30 05:       bmi +		; $C7A3
	$C79E  A9 01:       lda #$01
	$C7A0  85 B8:       sta $B8
	$C7A2  60:          rts 

+	$C7A3  A4 A4:       ldy $A4
	$C7A5  84 A5:       sty $A5
	$C7A7  10 01:       bpl +		; $C7AA
	$C7A9  60:          rts 

+	$C7AA  A9 80:       lda #$80
	$C7AC  9D B8 04:    sta $04B8,x
	$C7AF  9D CC 04:    sta $04CC,x
	$C7B2  A9 00:       lda #$00
	$C7B4  9D 30 05:    sta $0530,x
	$C7B7  B9 B2 00:    lda $00B2,y
	$C7BA  9D 90 04:    sta $0490,x
	$C7BD  B9 B5 00:    lda $00B5,y
	$C7C0  9D A4 04:    sta $04A4,x
	$C7C3  A4 BA:       ldy $BA
	$C7C5  20 A9 F1:    jsr _func_71A9
	$C7C8  29 1F:       and #$1F
	$C7CA  79 95 C8:    adc _data_4895_indexed,y
	$C7CD  9D 08 05:    sta $0508,x
	$C7D0  B9 A1 C8:    lda _data_48A1_indexed,y
	$C7D3  9D 1C 05:    sta $051C,x
	$C7D6  B9 9B C8:    lda _data_489B_indexed,y
	$C7D9  9D E0 04:    sta $04E0,x
	$C7DC  B9 A7 C8:    lda _data_48A7_indexed,y
	$C7DF  9D F4 04:    sta $04F4,x
	$C7E2  20 A9 F1:    jsr _func_71A9
	$C7E5  29 03:       and #$03
	$C7E7  9D 44 05:    sta $0544,x
	$C7EA  A8:          tay 
	$C7EB  B9 8D C8:    lda _data_488D_indexed,y
	$C7EE  18:          clc 
	$C7EF  7D 90 04:    adc $0490,x
	$C7F2  9D 90 04:    sta $0490,x
	$C7F5  B9 91 C8:    lda _data_4891_indexed,y
	$C7F8  18:          clc 
	$C7F9  7D A4 04:    adc $04A4,x
	$C7FC  9D A4 04:    sta $04A4,x
	$C7FF  B9 85 C8:    lda _data_4885_indexed,y
	$C802  F0 03:       beq +		; $C807
	$C804  20 33 CA:    jsr _func_4A33
+	$C807  B9 89 C8:    lda _data_4889_indexed,y
	$C80A  F0 03:       beq +		; $C80F
	$C80C  20 4B CA:    jsr _func_4A4B
+	$C80F  A5 BA:       lda $BA
	$C811  C9 05:       cmp #$05
	$C813  B0 02:       bcs +		; $C817
	$C815  E6 BA:       inc $BA
+	$C817  A9 06:       lda #$06
	$C819  38:          sec 
	$C81A  E5 BA:       sbc $BA
	$C81C  85 B8:       sta $B8
	$C81E  A5 F0:       lda $F0
	$C820  09 04:       ora #$04
	$C822  85 F0:       sta $F0
	$C824  4C 70 C7:    jmp _func_4770
;------------------------------------------
_func_4827
	$C827  A5 B8:       lda $B8
	$C829  C9 01:       cmp #$01
	$C82B  D0 53:       bne ++		; $C880 -> rts
	$C82D  AD 30 05:    lda $0530
	$C830  30 0A:       bmi +		; $C83C
	$C832  AD 31 05:    lda $0531
	$C835  30 05:       bmi +		; $C83C
	$C837  A9 02:       lda #$02
	$C839  85 B8:       sta $B8
	$C83B  60:          rts 

+	$C83C  A5 19:       lda $19
	$C83E  29 7F:       and #$7F
	$C840  C9 40:       cmp #$40
	$C842  90 3C:       bcc ++		; $C880 -> rts
	$C844  D0 06:       bne _func_484C
	$C846  A5 F1:       lda $F1
	$C848  09 08:       ora #$08
	$C84A  85 F1:       sta $F1
_func_484C
	$C84C  29 03:       and #$03
	$C84E  AA:          tax 
	$C84F  BD 81 C8:    lda _data_4881_indexed,x
	$C852  85 5A:       sta $5A
	$C854  A6 A4:       ldx $A4
	$C856  30 28:       bmi ++		; $C880 -> rts
	$C858  A9 23:       lda #$23
	$C85A  85 57:       sta $57
	$C85C  B5 A6:       lda $A6,x
	$C85E  85 58:       sta $58
	$C860  A9 01:       lda #$01
	$C862  85 59:       sta $59
	$C864  20 79 C8:    jsr _func_4879
	$C867  B5 A9:       lda $A9,x
	$C869  85 58:       sta $58
	$C86B  20 79 C8:    jsr _func_4879
	$C86E  B5 AC:       lda $AC,x
	$C870  85 58:       sta $58
	$C872  20 79 C8:    jsr _func_4879
	$C875  B5 AF:       lda $AF,x
	$C877  85 58:       sta $58
_func_4879
	$C879  A9 57:       lda #$57
	$C87B  A0 00:       ldy #$00
	$C87D  4C 27 C1:    jmp _func_4127

++	$C880  60:          rts 
;------------------------------------------
_data_4881_indexed
	$C881               .byte $55,$FF,$00,$FF
_data_4885_indexed
	$C885               .byte $00,$00,$FF,$FF
_data_4889_indexed
	$C889               .byte $FF,$00,$00,$FF
_data_488D_indexed
	$C88D               .byte $10,$10,$F0,$F0
_data_4891_indexed
	$C891               .byte $DE,$22,$22,$DE
_data_4895_indexed
	$C895               .byte $60,$70,$80,$90,$A0,$B0
_data_489B_indexed
	$C89B               .byte $00,$00,$00,$00,$00,$00
_data_48A1_indexed
	$C8A1               .byte $C0,$F0,$20,$50,$80,$B0
_data_48A7_indexed
	$C8A7               .byte $00,$00,$01,$01,$01,$01
_func_48AD
	$C8AD  A2 01:       ldx #$01
-	$C8AF  BD 30 05:    lda $0530,x
	$C8B2  10 03:       bpl +		; $C8B7
	$C8B4  4C A5 C9:    jmp +++		; $C9A5

+	$C8B7  BD 44 05:    lda $0544,x
	$C8BA  30 7B:       bmi ++		; $C937
	$C8BC  A8:          tay 
	$C8BD  8A:          txa 
	$C8BE  48:          pha 
	$C8BF  A6 A5:        ldx $A5
	$C8C1  B5 B2:        lda $B2,x
	$C8C3  79 DB C9:     adc _data_49DB_indexed,y
	$C8C6  8D E3 02:     sta $02E3
	$C8C9  8D E7 02:     sta $02E7
	$C8CC  8D EB 02:     sta $02EB
	$C8CF  B5 B5:        lda $B5,x
	$C8D1  79 EB C9:     adc _data_49EB_indexed,y
	$C8D4  8D E0 02:     sta $02E0
	$C8D7  79 FB C9:     adc _data_49FB_indexed,y
	$C8DA  8D E4 02:     sta $02E4
	$C8DD  79 FB C9:     adc _data_49FB_indexed,y
	$C8E0  8D E8 02:     sta $02E8
	$C8E3  98:           tya 
	$C8E4  29 03:        and #$03
	$C8E6  AA:           tax 
	$C8E7  98:           tya 
	$C8E8  4A:           lsr a
	$C8E9  4A:           lsr a
	$C8EA  A8:           tay 
	$C8EB  A5 19:        lda $19
	$C8ED  4A:           lsr a
	$C8EE  4A:           lsr a
	$C8EF  B0 04:        bcs +		; $C8F5
	$C8F1  98:           tya 
	$C8F2  69 05:        adc #$05
	$C8F4  A8:           tay 
+	$C8F5  B9 0B CA:     lda _data_4A0B_indexed,y
	$C8F8  8D E1 02:     sta $02E1
	$C8FB  B9 15 CA:     lda _data_4A15_indexed,y
	$C8FE  8D E5 02:     sta $02E5
	$C901  B9 1F CA:     lda _data_4A1F_indexed,y
	$C904  8D E9 02:     sta $02E9
	$C907  BD 29 CA:     lda _data_4A29_indexed,x
	$C90A  8D E2 02:     sta $02E2
	$C90D  8D E6 02:     sta $02E6
	$C910  8D EA 02:     sta $02EA
	$C913  68:          pla 
	$C914  AA:          tax 
	$C915  A5 19:       lda $19
	$C917  29 07:       and #$07
	$C919  D0 12:       bne +		; $C92D
	$C91B  BD 44 05:    lda $0544,x
	$C91E  18:          clc 
	$C91F  69 04:       adc #$04
	$C921  9D 44 05:    sta $0544,x
	$C924  C9 14:       cmp #$14
	$C926  90 05:       bcc +		; $C92D
	$C928  A9 FF:       lda #$FF
	$C92A  9D 44 05:    sta $0544,x
+	$C92D  BD 44 05:    lda $0544,x
	$C930  C9 10:       cmp #$10
	$C932  B0 03:       bcs ++		; $C937
	$C934  4C A5 C9:    jmp +++		; $C9A5

++	$C937  20 AC C9:    jsr _func_49AC
	$C93A  BD 90 04:    lda $0490,x
	$C93D  C9 02:       cmp #$02
	$C93F  B0 03:       bcs +		; $C944
	$C941  20 2D CA:    jsr _func_4A2D
+	$C944  BD 90 04:    lda $0490,x
	$C947  C9 F7:       cmp #$F7
	$C949  90 03:       bcc +		; $C94E
	$C94B  20 2D CA:    jsr _func_4A2D
+	$C94E  BD A4 04:    lda $04A4,x
	$C951  C9 02:       cmp #$02
	$C953  B0 03:       bcs +		; $C958
	$C955  20 45 CA:    jsr _func_4A45
+	$C958  BD A4 04:    lda $04A4,x
	$C95B  C9 E0:       cmp #$E0
	$C95D  90 0D:       bcc +		; $C96C
	$C95F  A9 FF:       lda #$FF
	$C961  9D 30 05:    sta $0530,x
	$C964  A9 F0:       lda #$F0
	$C966  9D A4 04:    sta $04A4,x
	$C969  4C A5 C9:    jmp +++		; $C9A5

+	$C96C  20 5D CA:    jsr _func_4A5D
	$C96F  20 12 CB:    jsr _func_4B12
	$C972  BC 30 05:    ldy $0530,x
	$C975  C8:          iny 
	$C976  98:          tya 
	$C977  29 07:       and #$07
	$C979  9D 30 05:    sta $0530,x
	$C97C  BC 30 05:    ldy $0530,x
	$C97F  B9 D3 C9:    lda _data_49D3_indexed,y
	$C982  85 12:       sta $12
	$C984  8A:          txa 
	$C985  0A:          asl a
	$C986  0A:          asl a
	$C987  18:          clc 
	$C988  A8:          tay 
	$C989  BD A4 04:    lda $04A4,x
	$C98C  C9 D0:       cmp #$D0
	$C98E  99 00 02:    sta $0200,y
	$C991  BD 90 04:    lda $0490,x
	$C994  99 03 02:    sta $0203,y
	$C997  A5 12:       lda $12
	$C999  99 01 02:    sta $0201,y
	$C99C  A9 00:       lda #$00
	$C99E  90 02:       bcc +		; $C9A2
	$C9A0  A9 20:       lda #$20
+	$C9A2  99 02 02:    sta $0202,y
+++	$C9A5  CA:          dex 
	$C9A6  30 03:       bmi +		; $C9AB -> rts
	$C9A8  4C AF C8:    jmp -		; $C8AF

+	$C9AB  60:          rts 
;------------------------------------------
_func_49AC
	$C9AC  BD 08 05:    lda $0508,x
	$C9AF  18:          clc 
	$C9B0  7D B8 04:    adc $04B8,x
	$C9B3  9D B8 04:    sta $04B8,x
	$C9B6  BD E0 04:    lda $04E0,x
	$C9B9  7D 90 04:    adc $0490,x
	$C9BC  9D 90 04:    sta $0490,x
	$C9BF  BD 1C 05:    lda $051C,x
	$C9C2  18:          clc 
	$C9C3  7D CC 04:    adc $04CC,x
	$C9C6  9D CC 04:    sta $04CC,x
	$C9C9  BD F4 04:    lda $04F4,x
	$C9CC  7D A4 04:    adc $04A4,x
	$C9CF  9D A4 04:    sta $04A4,x
	$C9D2  60:          rts 
;------------------------------------------
_data_49D3_indexed
	$C9D3               .byte $9D,$9E,$9F,$9E,$9D,$A0,$A1,$A0
_data_49DB_indexed
	$C9DB               .byte $08,$08,$F0,$F0,$08,$08,$F0,$F0,$08,$08,$F0,$F0,$08,$08,$F0,$F0
_data_49EB_indexed
	$C9EB               .byte $EE,$0A,$0A,$EE,$EE,$0A,$0A,$EE,$EE,$0A,$0A,$EE,$EE,$0A,$0A,$EE
_data_49FB_indexed
	$C9FB               .byte $F8,$08,$08,$F8,$F8,$08,$08,$F8,$F8,$08,$08,$F8,$F8,$08,$08,$F8
_data_4A0B_indexed
	$CA0B               .byte $91,$93,$97,$97,$FC,$92,$95,$9A,$9A,$FC
_data_4A15_indexed
	$CA15               .byte $FC,$94,$98,$98,$FC,$FC,$96,$9B,$9B,$FC
_data_4A1F_indexed
	$CA1F               .byte $FC,$FC,$99,$99,$FC,$FC,$FC,$9C,$9C,$FC
_data_4A29_indexed
	$CA29               .byte $C0,$40,$00,$80
_func_4A2D
	$CA2D  A5 F3:       lda $F3
	$CA2F  09 80:       ora #$80
	$CA31  85 F3:       sta $F3
_func_4A33
	$CA33  A9 00:       lda #$00
	$CA35  38:          sec 
	$CA36  FD 08 05:    sbc $0508,x
	$CA39  9D 08 05:    sta $0508,x
	$CA3C  A9 00:       lda #$00
	$CA3E  FD E0 04:    sbc $04E0,x
	$CA41  9D E0 04:    sta $04E0,x
	$CA44  60:          rts 
;------------------------------------------
_func_4A45
	$CA45  A5 F3:       lda $F3
	$CA47  09 80:       ora #$80
	$CA49  85 F3:       sta $F3
_func_4A4B
	$CA4B  A9 00:       lda #$00
	$CA4D  38:          sec 
	$CA4E  FD 1C 05:    sbc $051C,x
	$CA51  9D 1C 05:    sta $051C,x
	$CA54  A9 00:       lda #$00
	$CA56  FD F4 04:    sbc $04F4,x
	$CA59  9D F4 04:    sta $04F4,x
	$CA5C  60:          rts 
;------------------------------------------
_func_4A5D
	$CA5D  A4 CD:       ldy $CD
--	$CA5F  A9 00:       lda #$00
	$CA61  85 CC:       sta $CC
	$CA63  B1 27:       lda ($27),y
	$CA65  38:          sec 
	$CA66  E9 08:       sbc #$08
	$CA68  DD A4 04:    cmp $04A4,x
	$CA6B  B0 66:       bcs ++++		; $CAD3
	$CA6D  69 03:       adc #$03
	$CA6F  DD A4 04:    cmp $04A4,x
	$CA72  90 04:       bcc +		; $CA78
	$CA74  A9 01:       lda #$01
	$CA76  D0 10:       bne ++		; $CA88

+	$CA78  B1 29:       lda ($29),y
	$CA7A  DD A4 04:    cmp $04A4,x
	$CA7D  90 54:       bcc ++++		; $CAD3
	$CA7F  E9 03:       sbc #$03
	$CA81  DD A4 04:    cmp $04A4,x
	$CA84  B0 1D:       bcs +++		; $CAA3
	$CA86  A9 02:       lda #$02
++	$CA88  85 CC:       sta $CC
	$CA8A  B1 23:       lda ($23),y
	$CA8C  C9 10:       cmp #$10
	$CA8E  F0 08:       beq +		; $CA98
	$CA90  38:          sec 
	$CA91  E9 04:       sbc #$04
	$CA93  DD 90 04:    cmp $0490,x
	$CA96  B0 07:       bcs ++		; $CA9F
+	$CA98  B1 25:       lda ($25),y
	$CA9A  DD 90 04:    cmp $0490,x
	$CA9D  B0 04:       bcs +++		; $CAA3
++	$CA9F  A9 00:       lda #$00
	$CAA1  85 CC:       sta $CC
+++	$CAA3  B1 23:       lda ($23),y
	$CAA5  C9 10:       cmp #$10
	$CAA7  F0 15:       beq +		; $CABE
	$CAA9  38:          sec 
	$CAAA  E9 08:       sbc #$08
	$CAAC  DD 90 04:    cmp $0490,x
	$CAAF  B0 22:       bcs ++++		; $CAD3
	$CAB1  69 03:       adc #$03
	$CAB3  DD 90 04:    cmp $0490,x
	$CAB6  90 06:       bcc +		; $CABE
	$CAB8  A5 CC:       lda $CC
	$CABA  09 04:       ora #$04
	$CABC  D0 13:       bne ++		; $CAD1
+	$CABE  B1 25:       lda ($25),y
	$CAC0  C9 FF:       cmp #$FF
	$CAC2  F0 0F:       beq ++++		; $CAD3
	$CAC4  DD 90 04:    cmp $0490,x
	$CAC7  90 0A:       bcc ++++		; $CAD3
	$CAC9  E9 03:       sbc #$03
	$CACB  B0 06:       bcs ++++		; $CAD3
	$CACD  A5 CC:       lda $CC
	$CACF  09 08:       ora #$08
++	$CAD1  85 CC:       sta $CC
++++	$CAD3  A5 CC:       lda $CC
	$CAD5  D0 07:       bne ++		; $CADE
-	$CAD7  88:          dey 
	$CAD8  30 03:       bmi +		; $CADD -> rts
	$CADA  4C 5F CA:    jmp --		; $CA5F

+	$CADD  60:          rts 

++	$CADE  46 CC:       lsr $CC
	$CAE0  90 08:       bcc +		; $CAEA
	$CAE2  BD F4 04:    lda $04F4,x
	$CAE5  30 03:       bmi +		; $CAEA
	$CAE7  20 45 CA:    jsr _func_4A45
+	$CAEA  46 CC:       lsr $CC
	$CAEC  90 08:       bcc +		; $CAF6
	$CAEE  BD F4 04:    lda $04F4,x
	$CAF1  10 03:       bpl +		; $CAF6
	$CAF3  20 45 CA:    jsr _func_4A45
+	$CAF6  46 CC:       lsr $CC
	$CAF8  90 08:       bcc +		; $CB02
	$CAFA  BD E0 04:    lda $04E0,x
	$CAFD  30 03:       bmi +		; $CB02
	$CAFF  20 2D CA:    jsr _func_4A2D
+	$CB02  46 CC:       lsr $CC
	$CB04  90 08:       bcc +		; $CB0E -> $CAD7
	$CB06  BD E0 04:    lda $04E0,x
	$CB09  10 03:       bpl +		; $CB0E -> $CAD7
	$CB0B  20 2D CA:    jsr _func_4A2D
+	$CB0E  4C D7 CA:    jmp -		; $CAD7

	$CB11               .byte $60
_func_4B12
	$CB12  A0 01:       ldy #$01
-	$CB14  B9 88 00:    lda $0088,y
	$CB17  30 4D:       bmi +		; $CB66
	$CB19  F0 4B:       beq +		; $CB66
	$CB1B  B9 BD 00:    lda $00BD,y
	$CB1E  D0 46:       bne +		; $CB66
	$CB20  BD 90 04:    lda $0490,x
	$CB23  38:          sec 
	$CB24  F9 91 00:    sbc $0091,y
	$CB27  20 84 F0:    jsr _func_7084
	$CB2A  C9 08:       cmp #$08
	$CB2C  B0 38:       bcs +		; $CB66
	$CB2E  BD A4 04:    lda $04A4,x
	$CB31  38:          sec 
	$CB32  F9 9A 00:    sbc $009A,y
	$CB35  38:          sec 
	$CB36  E9 08:       sbc #$08
	$CB38  20 84 F0:    jsr _func_7084
	$CB3B  C9 0C:       cmp #$0C
	$CB3D  B0 27:       bcs +		; $CB66
	$CB3F  A9 00:       lda #$00
	$CB41  99 88 00:    sta $0088,y
	$CB44  A9 01:       lda #$01
	$CB46  99 7F 00:    sta $007F,y
	$CB49  99 C1 00:    sta $00C1,y
	$CB4C  A9 0B:       lda #$0B
	$CB4E  99 51 04:    sta $0451,y
	$CB51  A9 20:       lda #$20
	$CB53  99 5A 04:    sta $045A,y
	$CB56  A5 F0:       lda $F0
	$CB58  09 80:       ora #$80
	$CB5A  85 F0:       sta $F0
	$CB5C  A9 F0:       lda #$F0
	$CB5E  9D A4 04:    sta $04A4,x
	$CB61  A9 FF:       lda #$FF
	$CB63  9D 30 05:    sta $0530,x
+	$CB66  88:          dey 
	$CB67  10 AB:       bpl -		; $CB14
	$CB69  60:          rts 
;------------------------------------------
_func_4B6A
	$CB6A  AE D1 05:    ldx $05D1
	$CB6D  30 2E:       bmi ++		; $CB9D -> rts
-	$CB6F  20 9E CB:    jsr _func_4B9E
	$CB72  BD 04 06:    lda $0604,x
	$CB75  F0 23:       beq +		; $CB9A
	$CB77  8A:          txa 
	$CB78  45 19:       eor $19
	$CB7A  29 01:       and #$01
	$CB7C  D0 1C:       bne +		; $CB9A
	$CB7E  BC FA 05:    ldy $05FA,x
	$CB81  C8:          iny 
	$CB82  98:          tya 
	$CB83  29 03:       and #$03
	$CB85  9D FA 05:    sta $05FA,x
	$CB88  20 C1 CC:    jsr _func_4CC1
	$CB8B  BD FA 05:    lda $05FA,x
	$CB8E  C9 01:       cmp #$01
	$CB90  D0 08:       bne +		; $CB9A
	$CB92  DE 0E 06:    dec $060E,x
	$CB95  D0 03:       bne +		; $CB9A
	$CB97  DE 04 06:    dec $0604,x
+	$CB9A  CA:          dex 
	$CB9B  10 D2:       bpl -		; $CB6F
++	$CB9D  60:          rts 
;------------------------------------------
_func_4B9E
	$CB9E  A0 07:       ldy #$07
	$CBA0  BD 04 06:    lda $0604,x
	$CBA3  D0 03:       bne +		; $CBA8
	$CBA5  4C 30 CC:    jmp ++++		; $CC30

+ -	$CBA8  B9 88 00:    lda $0088,y
	$CBAB  30 78:       bmi +++		; $CC25
	$CBAD  F0 76:       beq +++		; $CC25
	$CBAF  C0 02:       cpy #$02
	$CBB1  90 04:       bcc +		; $CBB7
	$CBB3  C9 01:       cmp #$01
	$CBB5  F0 6E:       beq +++		; $CC25
+	$CBB7  B9 91 00:    lda $0091,y
	$CBBA  18:          clc 
	$CBBB  69 08:       adc #$08
	$CBBD  38:          sec 
	$CBBE  FD D2 05:    sbc $05D2,x
	$CBC1  85 12:       sta $12
	$CBC3  20 84 F0:    jsr _func_7084
	$CBC6  C9 12:       cmp #$12
	$CBC8  B0 5B:       bcs +++		; $CC25
	$CBCA  B9 9A 00:    lda $009A,y
	$CBCD  18:          clc 
	$CBCE  69 0C:       adc #$0C
	$CBD0  38:          sec 
	$CBD1  FD DC 05:    sbc $05DC,x
	$CBD4  85 13:       sta $13
	$CBD6  20 84 F0:    jsr _func_7084
	$CBD9  C9 12:       cmp #$12
	$CBDB  B0 48:       bcs +++		; $CC25
	$CBDD  A5 12:       lda $12
	$CBDF  30 11:       bmi +		; $CBF2
	$CBE1  C9 03:       cmp #$03
	$CBE3  90 1C:       bcc ++		; $CC01
	$CBE5  A9 02:       lda #$02
	$CBE7  99 1B 04:    sta $041B,y
	$CBEA  20 29 CC:    jsr _func_4C29
	$CBED  20 B1 EB:    jsr _func_6BB1
	$CBF0  D0 0F:       bne ++		; $CC01
+	$CBF2  C9 FD:       cmp #$FD
	$CBF4  B0 0B:       bcs ++		; $CC01
	$CBF6  A9 FE:       lda #$FE
	$CBF8  99 1B 04:    sta $041B,y
	$CBFB  20 B1 EB:    jsr _func_6BB1
	$CBFE  20 29 CC:    jsr _func_4C29
++	$CC01  A5 13:       lda $13
	$CC03  30 11:       bmi +		; $CC16
	$CC05  C9 03:       cmp #$03
	$CC07  90 1C:       bcc +++		; $CC25
	$CC09  A9 02:       lda #$02
	$CC0B  99 2D 04:    sta $042D,y
	$CC0E  20 A8 EB:    jsr _func_6BA8
	$CC11  20 29 CC:    jsr _func_4C29
	$CC14  D0 0F:       bne +++		; $CC25
+	$CC16  C9 FD:       cmp #$FD
	$CC18  B0 0B:       bcs +++		; $CC25
	$CC1A  A9 FE:       lda #$FE
	$CC1C  99 2D 04:    sta $042D,y
	$CC1F  20 A8 EB:    jsr _func_6BA8
	$CC22  20 29 CC:    jsr _func_4C29
+++	$CC25  88:          dey 
	$CC26  10 80:       bpl -		; $CBA8
	$CC28  60:          rts 
;------------------------------------------
_func_4C29
	$CC29  A5 F1:       lda $F1
	$CC2B  09 02:       ora #$02
	$CC2D  85 F1:       sta $F1
	$CC2F  60:          rts 

++++ -	$CC30  B9 88 00:    lda $0088,y
	$CC33  30 79:       bmi ++		; $CCAE
	$CC35  F0 77:       beq ++		; $CCAE
	$CC37  C0 02:       cpy #$02
	$CC39  90 2E:       bcc +		; $CC69
	$CC3B  BD FA 05:    lda $05FA,x
	$CC3E  C9 03:       cmp #$03
	$CC40  D0 27:       bne +		; $CC69
	$CC42  BD D2 05:    lda $05D2,x
	$CC45  38:          sec 
	$CC46  E9 0A:       sbc #$0A
	$CC48  D9 91 00:    cmp $0091,y
	$CC4B  B0 1C:       bcs +		; $CC69
	$CC4D  69 04:       adc #$04
	$CC4F  D9 91 00:    cmp $0091,y
	$CC52  90 15:       bcc +		; $CC69
	$CC54  BD DC 05:    lda $05DC,x
	$CC57  38:          sec 
	$CC58  E9 1C:       sbc #$1C
	$CC5A  D9 9A 00:    cmp $009A,y
	$CC5D  B0 0A:       bcs +		; $CC69
	$CC5F  69 04:       adc #$04
	$CC61  D9 9A 00:    cmp $009A,y
	$CC64  90 03:       bcc +		; $CC69
	$CC66  20 B5 CC:    jsr _func_4CB5
+	$CC69  B9 91 00:    lda $0091,y
	$CC6C  18:          clc 
	$CC6D  69 08:       adc #$08
	$CC6F  38:          sec 
	$CC70  FD D2 05:    sbc $05D2,x
	$CC73  20 84 F0:    jsr _func_7084
	$CC76  85 12:       sta $12
	$CC78  B9 9A 00:    lda $009A,y
	$CC7B  18:          clc 
	$CC7C  69 0C:       adc #$0C
	$CC7E  38:          sec 
	$CC7F  FD DC 05:    sbc $05DC,x
	$CC82  20 84 F0:    jsr _func_7084
	$CC85  85 13:       sta $13
	$CC87  BD FA 05:    lda $05FA,x
	$CC8A  C9 03:       cmp #$03
	$CC8C  F0 0A:       beq +		; $CC98
	$CC8E  A5 12:       lda $12
	$CC90  48:          pha 
	$CC91  A5 13:        lda $13
	$CC93  85 12:        sta $12
	$CC95  68:          pla 
	$CC96  85 13:       sta $13
+	$CC98  A5 12:       lda $12
	$CC9A  C9 14:       cmp #$14
	$CC9C  B0 10:       bcs ++		; $CCAE
	$CC9E  A5 13:       lda $13
	$CCA0  C9 0B:       cmp #$0B
	$CCA2  B0 0A:       bcs ++		; $CCAE
	$CCA4  A9 01:       lda #$01
	$CCA6  9D 04 06:    sta $0604,x
	$CCA9  A9 32:       lda #$32
	$CCAB  9D 0E 06:    sta $060E,x
++	$CCAE  88:          dey 
	$CCAF  30 03:       bmi +		; $CCB4 -> rts
	$CCB1  4C 30 CC:    jmp -		; $CC30

+	$CCB4  60:          rts 
;------------------------------------------
_func_4CB5
	$CCB5  8A:          txa 
	$CCB6  48:          pha 
	$CCB7  98:           tya 
	$CCB8  AA:           tax 
	$CCB9  E6 CB:        inc $CB
	$CCBB  20 79 E9:     jsr _func_6979
	$CCBE  68:          pla 
	$CCBF  AA:          tax 
	$CCC0  60:          rts 
;------------------------------------------
_func_4CC1
	$CCC1  BD F0 05:    lda $05F0,x
	$CCC4  85 57:       sta $57
	$CCC6  BD E6 05:    lda $05E6,x
	$CCC9  85 58:       sta $58
	$CCCB  A9 03:       lda #$03
	$CCCD  85 59:       sta $59
	$CCCF  BC FA 05:    ldy $05FA,x
	$CCD2  B9 1C CD:    lda _DataPointerTableLo_4D1C,y
	$CCD5  85 5A:       sta $5A
	$CCD7  B9 20 CD:    lda _DataPointerTableHi_4D1C,y
	$CCDA  85 5B:       sta $5B
	$CCDC  B9 24 CD:    lda _data_4D24_indexed,y
	$CCDF  85 5C:       sta $5C
	$CCE1  20 05 CD:    jsr _func_4D05
	$CCE4  B9 28 CD:    lda _DataPointerTableLo_4D28,y
	$CCE7  85 5A:       sta $5A
	$CCE9  B9 2C CD:    lda _DataPointerTableHi_4D28,y
	$CCEC  85 5B:       sta $5B
	$CCEE  B9 30 CD:    lda _data_4D30_indexed,y
	$CCF1  85 5C:       sta $5C
	$CCF3  20 05 CD:    jsr _func_4D05
	$CCF6  B9 34 CD:    lda _DataPointerTableLo_4D34,y
	$CCF9  85 5A:       sta $5A
	$CCFB  B9 38 CD:    lda _DataPointerTableHi_4D34,y
	$CCFE  85 5B:       sta $5B
	$CD00  B9 3C CD:    lda _data_4D3C_indexed,y
	$CD03  85 5C:       sta $5C
_func_4D05
	$CD05  98:          tya 
	$CD06  48:          pha 
	$CD07  A9 57:        lda #$57
	$CD09  A0 00:        ldy #$00
	$CD0B  20 27 C1:     jsr _func_4127
	$CD0E  68:          pla 
	$CD0F  A8:          tay 
	$CD10  A5 58:       lda $58
	$CD12  18:          clc 
	$CD13  69 20:       adc #$20
	$CD15  85 58:       sta $58
	$CD17  90 02:       bcc +		; $CD1B -> rts
	$CD19  E6 57:       inc $57
+	$CD1B  60:          rts 
;------------------------------------------
_DataPointerTableLo_4D1C
	$CD1C  A1:          .byte (DataTableEntry_22A1).lo
	$CD1D  24:          .byte (DataTableEntry_1E24).lo
	$CD1E               .byte $24,$24
_DataPointerTableHi_4D1C
	$CD20  A2:          .byte (DataTableEntry_22A1).hi
	$CD21  9E:          .byte (DataTableEntry_1E24).hi
	$CD22               .byte $AB,$24
_data_4D24_indexed
	$CD24               .byte $24,$24,$AC,$24
_DataPointerTableLo_4D28
	$CD28  A3:          .byte (DataTableEntry_24A3).lo
	$CD29  24:          .byte (DataTableEntry_1F24).lo
	$CD2A               .byte $AD,$A8
_DataPointerTableHi_4D28
	$CD2C  A4:          .byte (DataTableEntry_24A3).hi
	$CD2D  9F:          .byte (DataTableEntry_1F24).hi
	$CD2E               .byte $AE,$A9
_data_4D30_indexed
	$CD30               .byte $A5,$24,$AF,$AA
_DataPointerTableLo_4D34
	$CD34  24:          .byte (DataTableEntry_2624).lo
	$CD35  24:          .byte (DataTableEntry_2024).lo
	$CD36               .byte $B0,$24
_DataPointerTableHi_4D34
	$CD38  A6:          .byte (DataTableEntry_2624).hi
	$CD39  A0:          .byte (DataTableEntry_2024).hi
	$CD3A               .byte $B1,$24
_data_4D3C_indexed
	$CD3C               .byte $A7,$24,$24,$24
_func_4D40
	$CD40  A2 09:       ldx #$09
-	$CD42  A9 FF:       lda #$FF
	$CD44  9D 5D 05:    sta $055D,x
	$CD47  A9 F0:       lda #$F0
	$CD49  9D 7B 05:    sta $057B,x
	$CD4C  CA:          dex 
	$CD4D  10 F3:       bpl -		; $CD42
	$CD4F  60:          rts 
;------------------------------------------
_func_4D50
	$CD50  CE CC 05:    dec $05CC
	$CD53  F0 01:       beq +		; $CD56
	$CD55  60:          rts 

+	$CD56  A5 1B:       lda $1B
	$CD58  29 3F:       and #$3F
	$CD5A  69 28:       adc #$28
	$CD5C  8D CC 05:    sta $05CC
	$CD5F  A2 09:       ldx #$09
-	$CD61  BD 5D 05:    lda $055D,x
	$CD64  30 04:       bmi +		; $CD6A
	$CD66  CA:          dex 
	$CD67  10 F8:       bpl -		; $CD61
	$CD69  60:          rts 

+	$CD6A  A9 00:       lda #$00
	$CD6C  9D 5D 05:    sta $055D,x
	$CD6F  9D 99 05:    sta $0599,x
	$CD72  9D 8F 05:    sta $058F,x
	$CD75  A9 80:       lda #$80
	$CD77  9D 71 05:    sta $0571,x
	$CD7A  9D 85 05:    sta $0585,x
	$CD7D  A9 D0:       lda #$D0
	$CD7F  9D 7B 05:    sta $057B,x
	$CD82  20 A9 F1:    jsr _func_71A9
	$CD85  29 03:       and #$03
	$CD87  A8:          tay 
	$CD88  B9 A4 CE:    lda _data_4EA4_indexed,y
	$CD8B  9D 67 05:    sta $0567,x
	$CD8E  A0 00:       ldy #$00
	$CD90  A5 1B:       lda $1B
	$CD92  9D B7 05:    sta $05B7,x
	$CD95  10 01:       bpl +		; $CD98
	$CD97  88:          dey 
+	$CD98  98:          tya 
	$CD99  9D C1 05:    sta $05C1,x
	$CD9C  CE CB 05:    dec $05CB
	$CD9F  60:          rts 
;------------------------------------------
_func_4DA0
	$CDA0  A2 09:       ldx #$09
-	$CDA2  BD 5D 05:    lda $055D,x
	$CDA5  30 71:       bmi ++		; $CE18
	$CDA7  F0 49:       beq +		; $CDF2
	$CDA9  BD 99 05:    lda $0599,x
	$CDAC  85 12:       sta $12
	$CDAE  BD 8F 05:    lda $058F,x
	$CDB1  85 13:       sta $13
	$CDB3  20 9C F1:    jsr _func_719C
	$CDB6  BD B7 05:    lda $05B7,x
	$CDB9  18:          clc 
	$CDBA  65 12:       adc $12
	$CDBC  9D B7 05:    sta $05B7,x
	$CDBF  85 12:       sta $12
	$CDC1  BD C1 05:    lda $05C1,x
	$CDC4  65 13:       adc $13
	$CDC6  9D C1 05:    sta $05C1,x
	$CDC9  85 13:       sta $13
	$CDCB  20 9C F1:    jsr _func_719C
	$CDCE  BD 99 05:    lda $0599,x
	$CDD1  38:          sec 
	$CDD2  E5 12:       sbc $12
	$CDD4  9D 99 05:    sta $0599,x
	$CDD7  BD 8F 05:    lda $058F,x
	$CDDA  E5 13:       sbc $13
	$CDDC  9D 8F 05:    sta $058F,x
	$CDDF  BD 71 05:    lda $0571,x
	$CDE2  18:          clc 
	$CDE3  7D 99 05:    adc $0599,x
	$CDE6  9D 71 05:    sta $0571,x
	$CDE9  BD 67 05:    lda $0567,x
	$CDEC  7D 8F 05:    adc $058F,x
	$CDEF  9D 67 05:    sta $0567,x
+	$CDF2  BD 85 05:    lda $0585,x
	$CDF5  38:          sec 
	$CDF6  ED 5A 05:    sbc $055A
	$CDF9  9D 85 05:    sta $0585,x
	$CDFC  B0 03:       bcs +		; $CE01
	$CDFE  DE 7B 05:    dec $057B,x
+	$CE01  BD 7B 05:    lda $057B,x
	$CE04  C9 F0:       cmp #$F0
	$CE06  F0 0B:       beq +		; $CE13
	$CE08  C9 A8:       cmp #$A8
	$CE0A  B0 0C:       bcs ++		; $CE18
	$CE0C  A9 01:       lda #$01
	$CE0E  9D 5D 05:    sta $055D,x
	$CE11  D0 05:       bne ++		; $CE18

+	$CE13  A9 FF:       lda #$FF
	$CE15  9D 5D 05:    sta $055D,x
++	$CE18  20 25 CE:    jsr _func_4E25
	$CE1B  20 C4 CE:    jsr _func_4EC4
	$CE1E  CA:          dex 
	$CE1F  30 03:       bmi +		; $CE24 -> rts
	$CE21  4C A2 CD:    jmp -		; $CDA2

+	$CE24  60:          rts 
;------------------------------------------
_func_4E25
	$CE25  BC 5D 05:    ldy $055D,x
	$CE28  C8:          iny 
	$CE29  B9 A8 CE:    lda _data_4EA8_indexed,y
	$CE2C  85 13:       sta $13
	$CE2E  8A:          txa 
	$CE2F  85 12:       sta $12
	$CE31  0A:          asl a
	$CE32  65 12:       adc $12
	$CE34  0A:          asl a
	$CE35  0A:          asl a
	$CE36  A8:          tay 
	$CE37  BD 7B 05:    lda $057B,x
	$CE3A  99 50 02:    sta $0250,y
	$CE3D  99 54 02:    sta $0254,y
	$CE40  18:          clc 
	$CE41  69 08:       adc #$08
	$CE43  99 58 02:    sta $0258,y
	$CE46  BD 67 05:    lda $0567,x
	$CE49  99 53 02:    sta $0253,y
	$CE4C  18:          clc 
	$CE4D  69 04:       adc #$04
	$CE4F  99 5B 02:    sta $025B,y
	$CE52  18:          clc 
	$CE53  69 04:       adc #$04
	$CE55  99 57 02:    sta $0257,y
	$CE58  A5 13:       lda $13
	$CE5A  99 52 02:    sta $0252,y
	$CE5D  99 56 02:    sta $0256,y
	$CE60  99 5A 02:    sta $025A,y
	$CE63  BD 5D 05:    lda $055D,x
	$CE66  30 27:       bmi +		; $CE8F
	$CE68  A9 A8:       lda #$A8
	$CE6A  99 51 02:    sta $0251,y
	$CE6D  A9 A9:       lda #$A9
	$CE6F  99 55 02:    sta $0255,y
	$CE72  A5 19:       lda $19
	$CE74  4A:          lsr a
	$CE75  4A:          lsr a
	$CE76  4A:          lsr a
	$CE77  4A:          lsr a
	$CE78  29 07:       and #$07
	$CE7A  86 13:       stx $13
	$CE7C  AA:          tax 
	$CE7D  BD AB CE:    lda _data_4EAB_indexed,x
	$CE80  99 59 02:    sta $0259,y
	$CE83  B9 5A 02:    lda $025A,y
	$CE86  5D B3 CE:    eor _data_4EB3_indexed,x
	$CE89  99 5A 02:    sta $025A,y
	$CE8C  A6 13:       ldx $13
	$CE8E  60:          rts 

+	$CE8F  A9 F0:       lda #$F0
	$CE91  9D 7B 05:    sta $057B,x
	$CE94  A9 AC:       lda #$AC
	$CE96  99 51 02:    sta $0251,y
	$CE99  A9 AD:       lda #$AD
	$CE9B  99 55 02:    sta $0255,y
	$CE9E  A9 FC:       lda #$FC
	$CEA0  99 59 02:    sta $0259,y
	$CEA3  60:          rts 
;------------------------------------------
_data_4EA4_indexed
	$CEA4               .byte $20,$50,$A0,$D0
_data_4EA8_indexed
	$CEA8               .byte $02,$22,$02
_data_4EAB_indexed
	$CEAB               .byte $AA,$AB,$AB,$AA,$AA,$AB,$AB,$AA
_data_4EB3_indexed
	$CEB3               .byte $00,$00,$40,$40,$40,$40,$00,$00,$FC,$FC,$DF,$FC,$FC,$E0,$E2,$E1
	$CEC3               .byte $FC
_func_4EC4
	$CEC4  A0 01:       ldy #$01
-	$CEC6  B9 88 00:    lda $0088,y
	$CEC9  30 3A:       bmi +		; $CF05
	$CECB  F0 38:       beq +		; $CF05
	$CECD  BD 5D 05:    lda $055D,x
	$CED0  30 36:       bmi ++		; $CF08 -> rts
	$CED2  B9 9A 00:    lda $009A,y
	$CED5  C9 C0:       cmp #$C0
	$CED7  B0 2C:       bcs +		; $CF05
	$CED9  38:          sec 
	$CEDA  FD 7B 05:    sbc $057B,x
	$CEDD  20 84 F0:    jsr _func_7084
	$CEE0  C9 18:       cmp #$18
	$CEE2  B0 21:       bcs +		; $CF05
	$CEE4  B9 91 00:    lda $0091,y
	$CEE7  38:          sec 
	$CEE8  FD 67 05:    sbc $0567,x
	$CEEB  20 84 F0:    jsr _func_7084
	$CEEE  C9 10:       cmp #$10
	$CEF0  B0 13:       bcs +		; $CF05
	$CEF2  A9 FF:       lda #$FF
	$CEF4  9D 5D 05:    sta $055D,x
	$CEF7  B9 CD 05:    lda $05CD,y
	$CEFA  18:          clc 
	$CEFB  69 01:       adc #$01
	$CEFD  99 CD 05:    sta $05CD,y
	$CF00  A9 02:       lda #$02
	$CF02  85 F0:       sta $F0
	$CF04  60:          rts 

+	$CF05  88:          dey 
	$CF06  10 BE:       bpl -		; $CEC6
++	$CF08  60:          rts 
;------------------------------------------
_loc_4F09
	$CF09  A9 20:       lda #$20
	$CF0B  85 F2:       sta $F2
	$CF0D  20 D8 D0:    jsr _func_50D8
	$CF10  20 40 CD:    jsr _func_4D40
	$CF13  A6 40:       ldx $40
-	$CF15  B5 41:       lda $41,x
	$CF17  30 03:       bmi +		; $CF1C
	$CF19  20 A6 F3:    jsr _func_73A6
+	$CF1C  CA:          dex 
	$CF1D  10 F6:       bpl -		; $CF15
	$CF1F  A2 00:       ldx #$00
	$CF21  86 BD:       stx $BD
	$CF23  86 BE:       stx $BE
	$CF25  A9 14:       lda #$14
	$CF27  8D CB 05:    sta $05CB
--	$CF2A  20 66 F4:    jsr _func_7466
	$CF2D  E6 4C:       inc $4C
	$CF2F  20 D3 D8:    jsr _func_58D3
	$CF32  20 87 E6:    jsr _func_6687
	$CF35  AD CB 05:    lda $05CB
	$CF38  F0 03:       beq +		; $CF3D
	$CF3A  20 50 CD:    jsr _func_4D50
+	$CF3D  20 A0 CD:    jsr _func_4DA0
	$CF40  AD CB 05:    lda $05CB
	$CF43  D0 E5:       bne --		; $CF2A
	$CF45  A2 09:       ldx #$09
-	$CF47  BD 5D 05:    lda $055D,x
	$CF4A  10 DE:       bpl --		; $CF2A
	$CF4C  CA:          dex 
	$CF4D  10 F8:       bpl -		; $CF47
	$CF4F  A5 19:       lda $19
	$CF51  D0 D7:       bne --		; $CF2A
	$CF53  20 3C D2:    jsr _func_523C
	$CF56  A2 02:       ldx #$02
	$CF58  86 46:       stx $46
	$CF5A  20 54 F4:    jsr _func_7454
	$CF5D  A9 21:       lda #$21
	$CF5F  A0 D1:       ldy #$D1
	$CF61  20 27 C1:    jsr _func_4127
	$CF64  A9 50:       lda #$50
	$CF66  A0 D1:       ldy #$D1
	$CF68  20 27 C1:    jsr _func_4127
	$CF6B  A9 5B:       lda #$5B
	$CF6D  A0 D1:       ldy #$D1
	$CF6F  20 27 C1:    jsr _func_4127
	$CF72  A6 40:       ldx $40
-	$CF74  A9 20:       lda #$20
	$CF76  95 91:       sta $91,x
	$CF78  BD 94 D1:    lda _data_5194_indexed,x
	$CF7B  95 9A:       sta $9A,x
	$CF7D  A9 03:       lda #$03
	$CF7F  95 7F:       sta $7F,x
	$CF81  A9 01:       lda #$01
	$CF83  9D 48 04:    sta $0448,x
	$CF86  20 A6 F3:    jsr _func_73A6
	$CF89  20 9A E3:    jsr _func_639A
	$CF8C  CA:          dex 
	$CF8D  10 E5:       bpl -		; $CF74
	$CF8F  A9 44:       lda #$44
	$CF91  8D 67 05:    sta $0567
	$CF94  8D 68 05:    sta $0568
	$CF97  A9 54:       lda #$54
	$CF99  8D 7B 05:    sta $057B
	$CF9C  A9 74:       lda #$74
	$CF9E  8D 7C 05:    sta $057C
	$CFA1  A9 01:       lda #$01
	$CFA3  8D 5D 05:    sta $055D
	$CFA6  8D 5E 05:    sta $055E
	$CFA9  A6 40:       ldx $40
-	$CFAB  20 25 CE:    jsr _func_4E25
	$CFAE  CA:          dex 
	$CFAF  10 FA:       bpl -		; $CFAB
	$CFB1  20 52 F4:    jsr _func_7452
	$CFB4  A9 2B:       lda #$2B
	$CFB6  85 57:       sta $57
	$CFB8  A9 24:       lda #$24
	$CFBA  85 58:       sta $58
	$CFBC  85 59:       sta $59
	$CFBE  A9 0C:       lda #$0C
	$CFC0  85 54:       sta $54
	$CFC2  A9 0B:       lda #$0B
	$CFC4  85 55:       sta $55
	$CFC6  A9 05:       lda #$05
	$CFC8  85 56:       sta $56
	$CFCA  AD CD 05:    lda $05CD
	$CFCD  20 BF D1:    jsr _func_51BF
	$CFD0  A5 40:       lda $40
	$CFD2  F0 0A:       beq +		; $CFDE
	$CFD4  A9 0F:       lda #$0F
	$CFD6  85 55:       sta $55
	$CFD8  AD CE 05:    lda $05CE
	$CFDB  20 BF D1:    jsr _func_51BF
+	$CFDE  20 52 F4:    jsr _func_7452
	$CFE1  AD 59 05:    lda $0559
	$CFE4  85 57:       sta $57
	$CFE6  A9 00:       lda #$00
	$CFE8  85 58:       sta $58
	$CFEA  85 59:       sta $59
	$CFEC  A9 08:       lda #$08
	$CFEE  85 54:       sta $54
	$CFF0  A9 0B:       lda #$0B
	$CFF2  85 55:       sta $55
	$CFF4  A9 03:       lda #$03
	$CFF6  85 56:       sta $56
	$CFF8  AD 59 05:    lda $0559
	$CFFB  20 0F C1:    jsr _func_410F
	$CFFE  A5 40:       lda $40
	$D000  F0 07:       beq +		; $D009
	$D002  A9 0F:       lda #$0F
	$D004  85 55:       sta $55
	$D006  20 0F C1:    jsr _func_410F
+	$D009  A9 FF:       lda #$FF
	$D00B  8D 5D 05:    sta $055D
	$D00E  8D 5E 05:    sta $055E
	$D011  A6 40:       ldx $40
-	$D013  20 25 CE:    jsr _func_4E25
	$D016  CA:          dex 
	$D017  10 FA:       bpl -		; $D013
	$D019  A9 02:       lda #$02
	$D01B  85 F0:       sta $F0
	$D01D  A2 02:       ldx #$02
	$D01F  20 54 F4:    jsr _func_7454
	$D022  A6 40:       ldx $40
-	$D024  20 25 CE:    jsr _func_4E25
	$D027  CA:          dex 
	$D028  10 FA:       bpl -		; $D024
	$D02A  20 96 D1:    jsr _func_5196
	$D02D  20 52 F4:    jsr _func_7452
	$D030  A9 01:       lda #$01
	$D032  85 F0:       sta $F0
	$D034  20 17 D1:    jsr _func_5117
	$D037  D0 25:       bne +		; $D05E
	$D039  A9 66:       lda #$66
	$D03B  A0 D1:       ldy #$D1
	$D03D  20 27 C1:    jsr _func_4127
	$D040  20 5B F4:    jsr _func_745B
	$D043  A2 1A:       ldx #$1A
-	$D045  BD 7A D1:    lda _data_517A_indexed,x
	$D048  95 57:       sta $57,x
	$D04A  CA:          dex 
	$D04B  10 F8:       bpl -		; $D045
	$D04D  AD 5B 05:    lda $055B
	$D050  85 68:       sta $68
	$D052  AD 5C 05:    lda $055C
	$D055  85 69:       sta $69
	$D057  20 23 C1:    jsr _func_4123
	$D05A  A9 10:       lda #$10
	$D05C  85 F2:       sta $F2
+	$D05E  A2 78:       ldx #$78
	$D060  20 54 F4:    jsr _func_7454
	$D063  20 96 D1:    jsr _func_5196
-	$D066  A9 00:       lda #$00
	$D068  85 3E:       sta $3E
	$D06A  A2 04:       ldx #$04
	$D06C  20 09 D2:    jsr _func_5209
	$D06F  20 23 C1:    jsr _func_4123
	$D072  A5 40:       lda $40
	$D074  F0 0E:       beq +		; $D084
	$D076  E6 3E:       inc $3E
	$D078  A2 12:       ldx #$12
	$D07A  20 09 D2:    jsr _func_5209
	$D07D  A9 65:       lda #$65
	$D07F  A0 00:       ldy #$00
	$D081  20 27 C1:    jsr _func_4127
+	$D084  A9 01:       lda #$01
	$D086  85 F1:       sta $F1
	$D088  A2 02:       ldx #$02
	$D08A  20 54 F4:    jsr _func_7454
	$D08D  A5 5D:       lda $5D
	$D08F  C9 24:       cmp #$24
	$D091  D0 D3:       bne -		; $D066
	$D093  A5 40:       lda $40
	$D095  F0 07:       beq +		; $D09E
	$D097  AD 6B 00:    lda $006B
	$D09A  C9 24:       cmp #$24
	$D09C  D0 C8:       bne -		; $D066
+	$D09E  A2 0A:       ldx #$0A
	$D0A0  20 54 F4:    jsr _func_7454
	$D0A3  20 17 D1:    jsr _func_5117
	$D0A6  D0 1C:       bne +		; $D0C4
	$D0A8  AD 5B 05:    lda $055B
	$D0AB  85 47:       sta $47
	$D0AD  AD 5C 05:    lda $055C
	$D0B0  85 48:       sta $48
	$D0B2  A5 40:       lda $40
	$D0B4  85 3E:       sta $3E
-	$D0B6  20 D2 D6:    jsr _func_56D2
	$D0B9  C6 3E:       dec $3E
	$D0BB  10 F9:       bpl -		; $D0B6
	$D0BD  A9 01:       lda #$01
	$D0BF  85 F1:       sta $F1
	$D0C1  20 52 F4:    jsr _func_7452
+	$D0C4  A9 00:       lda #$00
	$D0C6  85 47:       sta $47
	$D0C8  85 48:       sta $48
	$D0CA  A2 01:       ldx #$01
-	$D0CC  B5 41:       lda $41,x
	$D0CE  10 02:       bpl +		; $D0D2
	$D0D0  95 88:       sta $88,x
+	$D0D2  CA:          dex 
	$D0D3  10 F7:       bpl -		; $D0CC
	$D0D5  4C 49 F3:    jmp _loc_7349
;------------------------------------------
_func_50D8
	$D0D8  AE 58 05:    ldx $0558
	$D0DB  BD 03 D1:    lda _data_5103_indexed,x
	$D0DE  8D 59 05:    sta $0559
	$D0E1  BD 08 D1:    lda _data_5108_indexed,x
	$D0E4  8D 5A 05:    sta $055A
	$D0E7  BD 0D D1:    lda _data_510D_indexed,x
	$D0EA  8D 5B 05:    sta $055B
	$D0ED  BD 12 D1:    lda _data_5112_indexed,x
	$D0F0  8D 5C 05:    sta $055C
	$D0F3  E0 04:       cpx #$04
	$D0F5  B0 03:       bcs +		; $D0FA
	$D0F7  EE 58 05:    inc $0558
+	$D0FA  A9 00:       lda #$00
	$D0FC  8D CD 05:    sta $05CD
	$D0FF  8D CE 05:    sta $05CE
	$D102  60:          rts 
;------------------------------------------
_data_5103_indexed
	$D103               .byte $03,$05,$07,$07,$07
_data_5108_indexed
	$D108               .byte $80,$90,$98,$A0,$A8
_data_510D_indexed
	$D10D               .byte $01,$01,$02,$02,$03
_data_5112_indexed
	$D112               .byte $00,$05,$00,$05,$00
_func_5117
	$D117  AD CD 05:    lda $05CD
	$D11A  18:          clc 
	$D11B  6D CE 05:    adc $05CE
	$D11E  C9 14:       cmp #$14
	$D120  60:          rts 

	$D121               .byte $3F,$00,$10,$0F,$30,$30,$30,$0F,$30,$27,$15,$0F,$30,$02,$21,$0F
	$D131               .byte $16,$16,$16
_data_5134_indexed
	$D134               .byte $21,$73,$0B,$29,$00,$00,$00,$00,$00,$24,$19,$1D,$1C,$26,$21,$F3
	$D144               .byte $0B,$29,$00,$00,$00,$00,$00,$24,$19,$1D,$1C,$26,$23,$E8,$08,$FF
	$D154               .byte $FF,$FF,$FF,$FF,$FF,$FF,$FF,$23,$C0,$08,$40,$50,$50,$50,$50,$90
	$D164               .byte $A0,$A0,$22,$88,$11,$19,$24,$0E,$24,$1B,$24,$0F,$24,$0E,$24,$0C
	$D174               .byte $24,$1D,$24,$2C,$2C,$2C
_data_517A_indexed
	$D17A               .byte $22,$C6,$17,$1C,$1E,$19,$0E,$1B,$24,$0B,$18,$17,$1E,$1C,$24,$24
	$D18A               .byte $24,$01,$00,$00,$00,$00,$19,$1D,$1C,$2C
_data_5194_indexed
	$D194               .byte $50,$70
_func_5196
	$D196  A2 1C:       ldx #$1C
-	$D198  BD 34 D1:    lda _data_5134_indexed,x
	$D19B  95 57:       sta $57,x
	$D19D  CA:          dex 
	$D19E  10 F8:       bpl -		; $D198
	$D1A0  A2 04:       ldx #$04
	$D1A2  AC CD 05:    ldy $05CD
	$D1A5  20 D2 D1:    jsr _func_51D2
	$D1A8  A2 12:       ldx #$12
	$D1AA  AC CE 05:    ldy $05CE
	$D1AD  20 D2 D1:    jsr _func_51D2
	$D1B0  20 23 C1:    jsr _func_4123
	$D1B3  A5 40:       lda $40
	$D1B5  D0 01:       bne +		; $D1B8
	$D1B7  60:          rts 

+	$D1B8  A9 65:       lda #$65
	$D1BA  A0 00:       ldy #$00
	$D1BC  4C 27 C1:    jmp _func_4127
;------------------------------------------
_func_51BF
	$D1BF  A0 00:       ldy #$00
-	$D1C1  C9 0A:       cmp #$0A
	$D1C3  90 06:       bcc +		; $D1CB
	$D1C5  C8:          iny 
	$D1C6  E9 0A:       sbc #$0A
	$D1C8  4C C1 D1:    jmp -		; $D1C1

+	$D1CB  84 5A:       sty $5A
	$D1CD  85 5B:       sta $5B
	$D1CF  4C 0F C1:    jmp _func_410F
;------------------------------------------
_func_51D2
	$D1D2  88:          dey 
	$D1D3  30 1F:       bmi ++		; $D1F4
	$D1D5  AD 59 05:    lda $0559
	$D1D8  18:          clc 
	$D1D9  75 59:       adc $59,x
	$D1DB  C9 0A:       cmp #$0A
	$D1DD  90 04:       bcc +		; $D1E3
	$D1DF  E9 0A:       sbc #$0A
	$D1E1  F6 58:       inc $58,x
+	$D1E3  95 59:       sta $59,x
	$D1E5  B5 58:       lda $58,x
	$D1E7  C9 0A:       cmp #$0A
	$D1E9  90 06:       bcc +		; $D1F1 -> _func_51D2
	$D1EB  E9 0A:       sbc #$0A
	$D1ED  F6 57:       inc $57,x
	$D1EF  95 58:       sta $58,x
+	$D1F1  4C D2 D1:    jmp _func_51D2

++ --	$D1F4  A0 00:       ldy #$00
-	$D1F6  B5 57:       lda $57,x
	$D1F8  F0 04:       beq +		; $D1FE
	$D1FA  C9 24:       cmp #$24
	$D1FC  D0 0A:       bne ++		; $D208 -> rts
+	$D1FE  A9 24:       lda #$24
	$D200  95 57:       sta $57,x
	$D202  E8:          inx 
	$D203  C8:          iny 
	$D204  C0 04:       cpy #$04
	$D206  D0 EE:       bne -		; $D1F6
++	$D208  60:          rts 
;------------------------------------------
_func_5209
	$D209  B5 59:       lda $59,x
	$D20B  C9 24:       cmp #$24
	$D20D  F0 2A:       beq +++		; $D239 -> $D1F4
	$D20F  A8:          tay 
	$D210  D0 1C:       bne ++		; $D22E
	$D212  B5 58:       lda $58,x
	$D214  C9 24:       cmp #$24
	$D216  F0 21:       beq +++		; $D239 -> $D1F4
	$D218  B5 58:       lda $58,x
	$D21A  D0 0C:       bne +		; $D228
	$D21C  B5 57:       lda $57,x
	$D21E  C9 24:       cmp #$24
	$D220  F0 17:       beq +++		; $D239 -> $D1F4
	$D222  A9 0A:       lda #$0A
	$D224  95 58:       sta $58,x
	$D226  D6 57:       dec $57,x
+	$D228  A9 0A:       lda #$0A
	$D22A  95 59:       sta $59,x
	$D22C  D6 58:       dec $58,x
++	$D22E  D6 59:       dec $59,x
	$D230  8A:          txa 
	$D231  48:          pha 
	$D232  A9 0A:        lda #$0A
	$D234  20 D4 D6:     jsr _func_56D4
	$D237  68:          pla 
	$D238  AA:          tax 
+++	$D239  4C F4 D1:    jmp --		; $D1F4
;------------------------------------------
_func_523C
	$D23C  20 00 C1:    jsr _func_4100
	$D23F  20 F0 C0:    jsr _func_40F0
	$D242  A9 20:       lda #$20
	$D244  8D 06 20:    sta $2006
	$D247  A9 00:       lda #$00
	$D249  8D 06 20:    sta $2006
	$D24C  20 6B D2:    jsr _func_526B
	$D24F  20 6B D2:    jsr _func_526B
	$D252  20 FA C0:    jsr _func_40FA
	$D255  20 0B C1:    jsr _func_410B
	$D258  A2 3F:       ldx #$3F
	$D25A  A0 00:       ldy #$00
	$D25C  84 4C:       sty $4C
-	$D25E  A9 F0:       lda #$F0
	$D260  99 00 02:    sta $0200,y
	$D263  C8:          iny 
	$D264  C8:          iny 
	$D265  C8:          iny 
	$D266  C8:          iny 
	$D267  CA:          dex 
	$D268  10 F4:       bpl -		; $D25E
	$D26A  60:          rts 
;------------------------------------------
_func_526B
	$D26B  A2 F0:       ldx #$F0
	$D26D  A9 24:       lda #$24
-	$D26F  8D 07 20:    sta $2007
	$D272  8D 07 20:    sta $2007
	$D275  8D 07 20:    sta $2007
	$D278  8D 07 20:    sta $2007
	$D27B  CA:          dex 
	$D27C  D0 F1:       bne -		; $D26F
	$D27E  A2 40:       ldx #$40
	$D280  A9 00:       lda #$00
-	$D282  8D 07 20:    sta $2007
	$D285  CA:          dex 
	$D286  D0 FA:       bne -		; $D282
	$D288  60:          rts 
;------------------------------------------
_func_5289
	$D289  20 00 C1:    jsr _func_4100
	$D28C  20 F0 C0:    jsr _func_40F0
	$D28F  A5 16:       lda $16
	$D291  F0 03:       beq +		; $D296
	$D293  4C 68 D5:    jmp +++		; $D568

+	$D296  A4 3B:       ldy $3B
	$D298  B9 20 DB:    lda _DataPointerTableLo_5B20,y
	$D29B  85 1D:       sta $1D
	$D29D  B9 30 DB:    lda _DataPointerTableHi_5B20,y
	$D2A0  85 1E:       sta $1E
	$D2A2  20 8D D4:    jsr _func_548D
	$D2A5  A2 00:       ldx #$00
---	$D2A7  20 DB D4:    jsr _func_54DB
	$D2AA  C9 FF:       cmp #$FF
	$D2AC  F0 6A:       beq +		; $D318
	$D2AE  85 54:       sta $54
	$D2B0  20 DB D4:    jsr _func_54DB
	$D2B3  85 55:       sta $55
	$D2B5  A0 03:       ldy #$03
--	$D2B7  20 F1 D4:    jsr _func_54F1
	$D2BA  A9 04:       lda #$04
	$D2BC  85 12:       sta $12
	$D2BE  B9 89 D4:    lda _data_5489_indexed,y
-	$D2C1  8D 07 20:    sta $2007
	$D2C4  18:          clc 
	$D2C5  69 04:       adc #$04
	$D2C7  C6 12:       dec $12
	$D2C9  D0 F6:       bne -		; $D2C1
	$D2CB  E6 55:       inc $55
	$D2CD  88:          dey 
	$D2CE  10 E7:       bpl --		; $D2B7
	$D2D0  A5 55:       lda $55
	$D2D2  38:          sec 
	$D2D3  E9 04:       sbc #$04
	$D2D5  85 55:       sta $55
	$D2D7  20 12 D5:    jsr _func_5512
	$D2DA  95 A6:       sta $A6,x
	$D2DC  E6 54:       inc $54
	$D2DE  E6 54:       inc $54
	$D2E0  20 12 D5:    jsr _func_5512
	$D2E3  95 A9:       sta $A9,x
	$D2E5  E6 55:       inc $55
	$D2E7  E6 55:       inc $55
	$D2E9  20 12 D5:    jsr _func_5512
	$D2EC  95 AF:       sta $AF,x
	$D2EE  C6 54:       dec $54
	$D2F0  C6 54:       dec $54
	$D2F2  20 12 D5:    jsr _func_5512
	$D2F5  95 AC:       sta $AC,x
	$D2F7  86 A4:       stx $A4
	$D2F9  A9 03:       lda #$03
	$D2FB  20 4C C8:    jsr _func_484C
	$D2FE  20 72 C1:    jsr _func_4172
	$D301  A6 A4:       ldx $A4
	$D303  A5 54:       lda $54
	$D305  0A:          asl a
	$D306  0A:          asl a
	$D307  0A:          asl a
	$D308  18:          clc 
	$D309  69 10:       adc #$10
	$D30B  95 B2:       sta $B2,x
	$D30D  A5 55:       lda $55
	$D30F  0A:          asl a
	$D310  0A:          asl a
	$D311  0A:          asl a
	$D312  95 B5:       sta $B5,x
	$D314  E8:          inx 
	$D315  4C A7 D2:    jmp ---		; $D2A7

+	$D318  CA:          dex 
	$D319  86 A3:       stx $A3
	$D31B  A2 00:       ldx #$00
-	$D31D  20 DB D4:    jsr _func_54DB
	$D320  C9 FF:       cmp #$FF
	$D322  F0 50:       beq +		; $D374
	$D324  85 54:       sta $54
	$D326  20 DB D4:    jsr _func_54DB
	$D329  85 55:       sta $55
	$D32B  20 DB D4:    jsr _func_54DB
	$D32E  9D FA 05:    sta $05FA,x
	$D331  A5 54:       lda $54
	$D333  0A:          asl a
	$D334  0A:          asl a
	$D335  0A:          asl a
	$D336  69 0C:       adc #$0C
	$D338  9D D2 05:    sta $05D2,x
	$D33B  A5 55:       lda $55
	$D33D  0A:          asl a
	$D33E  0A:          asl a
	$D33F  0A:          asl a
	$D340  69 0C:       adc #$0C
	$D342  9D DC 05:    sta $05DC,x
	$D345  A9 00:       lda #$00
	$D347  9D 04 06:    sta $0604,x
	$D34A  20 F1 D4:    jsr _func_54F1
	$D34D  9D E6 05:    sta $05E6,x
	$D350  A5 13:       lda $13
	$D352  9D F0 05:    sta $05F0,x
	$D355  20 62 D5:    jsr _func_5562
	$D358  20 32 D5:    jsr _func_5532
	$D35B  E6 54:       inc $54
	$D35D  E6 54:       inc $54
	$D35F  20 32 D5:    jsr _func_5532
	$D362  E6 55:       inc $55
	$D364  E6 55:       inc $55
	$D366  20 32 D5:    jsr _func_5532
	$D369  C6 54:       dec $54
	$D36B  C6 54:       dec $54
	$D36D  20 32 D5:    jsr _func_5532
	$D370  E8:          inx 
	$D371  4C 1D D3:    jmp -		; $D31D

+	$D374  CA:          dex 
	$D375  8E D1 05:    stx $05D1
	$D378  20 DB D4:    jsr _func_54DB
	$D37B  85 1F:       sta $1F
	$D37D  20 DB D4:    jsr _func_54DB
	$D380  85 20:       sta $20
	$D382  A0 00:       ldy #$00
	$D384  B1 1F:       lda ($1F),y
	$D386  AA:          tax 
	$D387  CA:          dex 
	$D388  10 05:       bpl +		; $D38F
	$D38A  E6 C8:       inc $C8
	$D38C  4C B0 D3:    jmp ++		; $D3B0

+	$D38F  C8:          iny 
-	$D390  B1 1F:       lda ($1F),y
	$D392  C8:          iny 
	$D393  95 93:       sta $93,x
	$D395  B1 1F:       lda ($1F),y
	$D397  C8:          iny 
	$D398  95 9C:       sta $9C,x
	$D39A  B1 1F:       lda ($1F),y
	$D39C  C8:          iny 
	$D39D  9D 53 04:    sta $0453,x
	$D3A0  A9 02:       lda #$02
	$D3A2  95 81:       sta $81,x
	$D3A4  A9 01:       lda #$01
	$D3A6  95 8A:       sta $8A,x
	$D3A8  A5 C6:       lda $C6
	$D3AA  9D 41 04:    sta $0441,x
	$D3AD  CA:          dex 
	$D3AE  10 E0:       bpl -		; $D390
++	$D3B0  20 DB D4:    jsr _func_54DB
	$D3B3  85 CD:       sta $CD
	$D3B5  20 DB D4:    jsr _func_54DB
	$D3B8  85 23:       sta $23
	$D3BA  20 DB D4:    jsr _func_54DB
	$D3BD  A8:          tay 
	$D3BE  85 24:       sta $24
	$D3C0  A5 23:       lda $23
	$D3C2  20 82 D4:    jsr _func_5482
	$D3C5  85 25:       sta $25
	$D3C7  84 26:       sty $26
	$D3C9  20 82 D4:    jsr _func_5482
	$D3CC  85 27:       sta $27
	$D3CE  84 28:       sty $28
	$D3D0  20 82 D4:    jsr _func_5482
	$D3D3  85 29:       sta $29
	$D3D5  84 2A:       sty $2A
---	$D3D7  20 CF D5:    jsr _func_55CF
	$D3DA  20 E3 D3:    jsr _func_53E3
	$D3DD  20 FA C0:    jsr _func_40FA
	$D3E0  4C 0B C1:    jmp _func_410B
;------------------------------------------
_func_53E3
	$D3E3  A2 22:       ldx #$22
-	$D3E5  BD 2D D4:    lda _data_542D_indexed,x
	$D3E8  95 57:       sta $57,x
	$D3EA  CA:          dex 
	$D3EB  10 F8:       bpl -		; $D3E5
	$D3ED  A5 C8:       lda $C8
	$D3EF  D0 15:       bne +		; $D406
	$D3F1  A5 3B:       lda $3B
	$D3F3  29 0C:       and #$0C
	$D3F5  09 03:       ora #$03
	$D3F7  A8:          tay 
	$D3F8  A2 03:       ldx #$03
-	$D3FA  B9 50 D4:    lda _data_5450_indexed,y
	$D3FD  95 5A:       sta $5A,x
	$D3FF  88:          dey 
	$D400  CA:          dex 
	$D401  10 F7:       bpl -		; $D3FA
--	$D403  4C 23 C1:    jmp _func_4123

+	$D406  AE 58 05:    ldx $0558
	$D409  BD 60 D4:    lda _DataPointerTableLo_5460,x
	$D40C  85 1D:       sta $1D
	$D40E  BD 65 D4:    lda _DataPointerTableHi_5460,x
	$D411  85 1E:       sta $1E
	$D413  A2 03:       ldx #$03
	$D415  A0 07:       ldy #$07
-	$D417  B1 1D:       lda ($1D),y
	$D419  95 72:       sta $72,x
	$D41B  88:          dey 
	$D41C  CA:          dex 
	$D41D  10 F8:       bpl -		; $D417
	$D41F  A5 16:       lda $16
	$D421  D0 E0:       bne --		; $D403 -> _func_4123
-	$D423  B1 1D:       lda ($1D),y
	$D425  99 5A 00:    sta $005A,y
	$D428  88:          dey 
	$D429  10 F8:       bpl -		; $D423
	$D42B  30 D6:       bmi --		; $D403 -> _func_4123
_data_542D_indexed
	$D42D               .byte $3F,$00,$20,$0F,$2A,$09,$07,$0F,$30,$27,$15,$0F,$30,$02,$21,$0F
	$D43D               .byte $30,$00,$10,$0F,$16,$12,$37,$0F,$12,$16,$37,$0F,$17,$11,$35,$0F
	$D44D               .byte $17,$11,$2B
_data_5450_indexed
	$D450               .byte $0F,$2A,$09,$07,$0F,$26,$06,$07,$0F,$1B,$0C,$07,$0F,$2C,$01,$06
_DataPointerTableLo_5460
	$D460  6A:          .byte (DataTableEntry_546A).lo
	$D461  72:          .byte (DataTableEntry_5472).lo
	$D462  7A:          .byte (DataTableEntry_547A).lo
	$D463  7A:          .byte (DataTableEntry_547A).lo
	$D464  7A:          .byte (DataTableEntry_547A).lo
_DataPointerTableHi_5460
	$D465  D4:          .byte (DataTableEntry_546A).hi
	$D466  D4:          .byte (DataTableEntry_5472).hi
	$D467  D4:          .byte (DataTableEntry_547A).hi
	$D468  D4:          .byte (DataTableEntry_547A).hi
	$D469  D4:          .byte (DataTableEntry_547A).hi
DataTableEntry_546A
	$D46A               .byte $0F,$02,$08,$06,$0F,$2B,$30,$12
DataTableEntry_5472
	$D472               .byte $0F,$07,$0A,$19,$0F,$26,$30,$2B
DataTableEntry_547A
	$D47A               .byte $0F,$07,$0C,$1C,$0F,$15,$30,$26
_func_5482
	$D482  38:          sec 
	$D483  65 CD:       adc $CD
	$D485  90 01:       bcc +		; $D488 -> rts
	$D487  C8:          iny 
+	$D488  60:          rts 
;------------------------------------------
_data_5489_indexed
	$D489               .byte $7F,$7E,$7D,$7C
_func_548D
	$D48D  20 DB D4:    jsr _func_54DB
	$D490  85 1F:       sta $1F
	$D492  20 DB D4:    jsr _func_54DB
	$D495  85 20:       sta $20
	$D497  AA:          tax 
	$D498  F0 40:       beq ++		; $D4DA -> rts
--	$D49A  20 E6 D4:    jsr _func_54E6
	$D49D  AA:          tax 
	$D49E  F0 ED:       beq _func_548D
	$D4A0  29 7F:       and #$7F
	$D4A2  8D 06 20:    sta $2006
	$D4A5  20 E6 D4:    jsr _func_54E6
	$D4A8  8D 06 20:    sta $2006
	$D4AB  20 E6 D4:    jsr _func_54E6
	$D4AE  85 12:       sta $12
	$D4B0  8A:          txa 
	$D4B1  29 80:       and #$80
	$D4B3  4A:          lsr a
	$D4B4  4A:          lsr a
	$D4B5  4A:          lsr a
	$D4B6  4A:          lsr a
	$D4B7  4A:          lsr a
	$D4B8  05 00:       ora $00
	$D4BA  8D 00 20:    sta $2000
	$D4BD  8A:          txa 
	$D4BE  29 40:       and #$40
	$D4C0  D0 0C:       bne +		; $D4CE
-	$D4C2  20 E6 D4:    jsr _func_54E6
	$D4C5  8D 07 20:    sta $2007
	$D4C8  C6 12:       dec $12
	$D4CA  D0 F6:       bne -		; $D4C2
	$D4CC  F0 CC:       beq --		; $D49A
+	$D4CE  20 E6 D4:    jsr _func_54E6
-	$D4D1  8D 07 20:    sta $2007
	$D4D4  C6 12:       dec $12
	$D4D6  D0 F9:       bne -		; $D4D1
	$D4D8  F0 C0:       beq --		; $D49A
++	$D4DA  60:          rts 
;------------------------------------------
_func_54DB
	$D4DB  A0 00:       ldy #$00
	$D4DD  B1 1D:       lda ($1D),y
	$D4DF  E6 1D:       inc $1D
	$D4E1  D0 02:       bne +		; $D4E5 -> rts
	$D4E3  E6 1E:       inc $1E
+	$D4E5  60:          rts 
;------------------------------------------
_func_54E6
	$D4E6  A0 00:       ldy #$00
	$D4E8  B1 1F:       lda ($1F),y
	$D4EA  E6 1F:       inc $1F
	$D4EC  D0 02:       bne +		; $D4F0 -> rts
	$D4EE  E6 20:       inc $20
+	$D4F0  60:          rts 
;------------------------------------------
_func_54F1
	$D4F1  A5 55:       lda $55
	$D4F3  85 12:       sta $12
	$D4F5  A9 00:       lda #$00
	$D4F7  06 12:       asl $12
	$D4F9  06 12:       asl $12
	$D4FB  06 12:       asl $12
	$D4FD  06 12:       asl $12
	$D4FF  2A:          rol a
	$D500  06 12:       asl $12
	$D502  2A:          rol a
	$D503  09 20:       ora #$20
	$D505  8D 06 20:    sta $2006
	$D508  85 13:       sta $13
	$D50A  A5 12:       lda $12
	$D50C  05 54:       ora $54
	$D50E  8D 06 20:    sta $2006
	$D511  60:          rts 
;------------------------------------------
_func_5512
	$D512  A5 55:       lda $55
	$D514  29 FC:       and #$FC
	$D516  0A:          asl a
	$D517  85 12:       sta $12
	$D519  A5 54:       lda $54
	$D51B  4A:          lsr a
	$D51C  4A:          lsr a
	$D51D  05 12:       ora $12
	$D51F  09 C0:       ora #$C0
	$D521  48:          pha 
	$D522  A5 55:        lda $55
	$D524  29 02:        and #$02
	$D526  85 12:        sta $12
	$D528  A5 54:        lda $54
	$D52A  29 02:        and #$02
	$D52C  4A:           lsr a
	$D52D  05 12:        ora $12
	$D52F  A8:           tay 
	$D530  68:          pla 
	$D531  60:          rts 
;------------------------------------------
_func_5532
	$D532  A9 23:       lda #$23
	$D534  8D 06 20:    sta $2006
	$D537  20 12 D5:    jsr _func_5512
	$D53A  8D 06 20:    sta $2006
	$D53D  AD 07 20:    lda $2007
	$D540  AD 07 20:    lda $2007
	$D543  39 5A D5:    and _data_555A_indexed,y
	$D546  19 5E D5:    ora _data_555E_indexed,y
	$D549  48:          pha 
	$D54A  A9 23:        lda #$23
	$D54C  8D 06 20:     sta $2006
	$D54F  20 12 D5:     jsr _func_5512
	$D552  8D 06 20:     sta $2006
	$D555  68:          pla 
	$D556  8D 07 20:    sta $2007
	$D559  60:          rts 
;------------------------------------------
_data_555A_indexed
	$D55A               .byte $FC,$F3,$CF,$3F
_data_555E_indexed
	$D55E               .byte $01,$04,$10,$40
_func_5562
	$D562  20 C1 CC:    jsr _func_4CC1
	$D565  4C 72 C1:    jmp _func_4172

+++	$D568  A9 C0:       lda #$C0
	$D56A  A0 23:       ldy #$23
	$D56C  20 89 D5:    jsr _func_5589
	$D56F  A9 C0:       lda #$C0
	$D571  A0 27:       ldy #$27
	$D573  20 89 D5:    jsr _func_5589
	$D576  A0 23:       ldy #$23
	$D578  A9 60:       lda #$60
	$D57A  20 AE D5:    jsr _func_55AE
	$D57D  A0 27:       ldy #$27
	$D57F  A9 60:       lda #$60
	$D581  20 AE D5:    jsr _func_55AE
	$D584  E6 C8:       inc $C8
	$D586  4C D7 D3:    jmp ---		; $D3D7
;------------------------------------------
_func_5589
	$D589  8C 06 20:    sty $2006
	$D58C  8D 06 20:    sta $2006
	$D58F  A2 00:       ldx #$00
-	$D591  BD A4 DC:    lda _data_5CA4_indexed,x
	$D594  8D 07 20:    sta $2007
	$D597  E8:          inx 
	$D598  E0 08:       cpx #$08
	$D59A  D0 F5:       bne -		; $D591
	$D59C  A9 00:       lda #$00
	$D59E  A2 28:       ldx #$28
	$D5A0  20 A7 D5:    jsr _func_55A7
	$D5A3  A9 AA:       lda #$AA
	$D5A5  A2 10:       ldx #$10
_func_55A7
	$D5A7  8D 07 20:    sta $2007
	$D5AA  CA:          dex 
	$D5AB  D0 FA:       bne _func_55A7
	$D5AD  60:          rts 
;------------------------------------------
_func_55AE
	$D5AE  8C 06 20:    sty $2006
	$D5B1  8D 06 20:    sta $2006
	$D5B4  A2 20:       ldx #$20
	$D5B6  A9 58:       lda #$58
	$D5B8  20 BF D5:    jsr _func_55BF
	$D5BB  A2 40:       ldx #$40
	$D5BD  A9 5C:       lda #$5C
_func_55BF
	$D5BF  85 12:       sta $12
-	$D5C1  8A:          txa 
	$D5C2  29 03:       and #$03
	$D5C4  49 03:       eor #$03
	$D5C6  05 12:       ora $12
	$D5C8  8D 07 20:    sta $2007
	$D5CB  CA:          dex 
	$D5CC  D0 F3:       bne -		; $D5C1
	$D5CE  60:          rts 
;------------------------------------------
_func_55CF
	$D5CF  A2 00:       ldx #$00
-	$D5D1  20 47 D6:    jsr _func_5647
	$D5D4  20 E7 D5:    jsr _func_55E7
	$D5D7  A5 51:       lda $51
	$D5D9  09 04:       ora #$04
	$D5DB  85 51:       sta $51
	$D5DD  20 E7 D5:    jsr _func_55E7
	$D5E0  E8:          inx 
	$D5E1  E8:          inx 
	$D5E2  E0 80:       cpx #$80
	$D5E4  D0 EB:       bne -		; $D5D1
	$D5E6  60:          rts 
;------------------------------------------
_func_55E7
	$D5E7  A5 51:       lda $51
	$D5E9  8D 06 20:    sta $2006
	$D5EC  A5 50:       lda $50
	$D5EE  8D 06 20:    sta $2006
	$D5F1  AD 07 20:    lda $2007
	$D5F4  AD 07 20:    lda $2007
	$D5F7  C9 24:       cmp #$24
	$D5F9  D0 07:       bne +		; $D602 -> rts
	$D5FB  8A:          txa 
	$D5FC  29 03:       and #$03
	$D5FE  A8:          tay 
	$D5FF  4C 31 D6:    jmp ++		; $D631

+	$D602  60:          rts 
;------------------------------------------
_func_5603
	$D603  A5 4C:       lda $4C
	$D605  F0 29:       beq +		; $D630 -> rts
	$D607  C6 4C:       dec $4C
	$D609  A5 4F:       lda $4F
	$D60B  18:          clc 
	$D60C  69 02:       adc #$02
	$D60E  29 3F:       and #$3F
	$D610  85 4F:       sta $4F
	$D612  AA:          tax 
	$D613  20 47 D6:    jsr _func_5647
	$D616  A5 51:       lda $51
	$D618  8D 06 20:    sta $2006
	$D61B  A5 50:       lda $50
	$D61D  8D 06 20:    sta $2006
	$D620  AD 07 20:    lda $2007
	$D623  AD 07 20:    lda $2007
	$D626  A0 03:       ldy #$03
-	$D628  D9 42 D6:    cmp _data_5642_indexed,y
	$D62B  F0 04:       beq ++		; $D631
	$D62D  88:          dey 
	$D62E  10 F8:       bpl -		; $D628
+	$D630  60:          rts 

++	$D631  A5 51:       lda $51
	$D633  8D 06 20:    sta $2006
	$D636  A5 50:       lda $50
	$D638  8D 06 20:    sta $2006
	$D63B  B9 43 D6:    lda _data_5643_indexed,y
	$D63E  8D 07 20:    sta $2007
	$D641  60:          rts 
;------------------------------------------
_data_5642_indexed
	$D642               .byte $24
_data_5643_indexed
	$D643               .byte $ED,$EE,$EF,$24
_func_5647
	$D647  BD 52 D6:    lda _data_5652_indexed,x
	$D64A  85 50:       sta $50
	$D64C  BD 53 D6:    lda _data_5653_indexed,x
	$D64F  85 51:       sta $51
	$D651  60:          rts 
;------------------------------------------
_data_5652_indexed
	$D652               .byte $63
_data_5653_indexed
	$D653               .byte $21,$A5,$21,$CB,$20,$B7,$20,$7D,$21,$9B,$22,$F2,$20,$49,$22,$6D
	$D663               .byte $21,$0B,$22,$92,$22,$95,$21,$1C,$21,$48,$21,$E0,$20,$0B,$23,$CE
	$D673               .byte $20,$D0,$21,$06,$21,$19,$21,$30,$22,$8A,$22,$88,$22,$A4,$20,$42
	$D683               .byte $22,$68,$21,$3C,$22,$36,$21,$CA,$21,$BC,$20,$96,$21,$4C,$21,$35
	$D693               .byte $22,$EF,$20,$68,$22,$A6,$20,$BB,$21,$7A,$21,$EA,$20,$F1,$21,$C2
	$D6A3               .byte $20,$77,$21,$54,$21,$BA,$20,$C5,$22,$BE,$20,$FA,$20,$AE,$21,$46
	$D6B3               .byte $21,$9A,$21,$D2,$20,$3D,$21,$2B,$22,$B0,$20,$B6,$21,$AC,$20,$B3
	$D6C3               .byte $20,$DB,$20,$F6,$20,$2C,$21,$E7,$20,$62,$21,$E4,$21,$4E,$21
_func_56D2
	$D6D2  A9 00:       lda #$00
_func_56D4
	$D6D4  85 43:       sta $43
	$D6D6  A5 3A:       lda $3A
	$D6D8  F0 01:       beq +		; $D6DB
-	$D6DA  60:          rts 

+	$D6DB  A6 3E:       ldx $3E
	$D6DD  E0 02:       cpx #$02
	$D6DF  B0 F9:       bcs -		; $D6DA -> rts
	$D6E1  B5 41:       lda $41,x
	$D6E3  30 F5:       bmi -		; $D6DA -> rts
	$D6E5  A0 64:       ldy #$64
	$D6E7  20 72 D7:    jsr _func_5772
	$D6EA  18:          clc 
	$D6EB  65 48:       adc $48
	$D6ED  85 45:       sta $45
	$D6EF  A0 0A:       ldy #$0A
	$D6F1  20 72 D7:    jsr _func_5772
	$D6F4  85 44:       sta $44
	$D6F6  A6 3F:       ldx $3F
	$D6F8  BD 6F D7:    lda _data_576F_indexed,x
	$D6FB  85 21:       sta $21
	$D6FD  A9 06:       lda #$06
	$D6FF  85 22:       sta $22
	$D701  A5 3E:       lda $3E
	$D703  0A:          asl a
	$D704  0A:          asl a
	$D705  05 3E:       ora $3E
	$D707  AA:          tax 
	$D708  18:          clc 
	$D709  B5 03:       lda $03,x
	$D70B  65 43:       adc $43
	$D70D  20 85 D7:    jsr _func_5785
	$D710  95 03:       sta $03,x
	$D712  B5 04:       lda $04,x
	$D714  65 44:       adc $44
	$D716  20 85 D7:    jsr _func_5785
	$D719  95 04:       sta $04,x
	$D71B  B5 05:       lda $05,x
	$D71D  65 45:       adc $45
	$D71F  20 85 D7:    jsr _func_5785
	$D722  95 05:       sta $05,x
	$D724  B5 06:       lda $06,x
	$D726  65 47:       adc $47
	$D728  20 85 D7:    jsr _func_5785
	$D72B  95 06:       sta $06,x
	$D72D  B5 07:       lda $07,x
	$D72F  69 00:       adc #$00
	$D731  20 85 D7:    jsr _func_5785
	$D734  95 07:       sta $07,x
	$D736  E8:          inx 
	$D737  E8:          inx 
	$D738  E8:          inx 
	$D739  E8:          inx 
	$D73A  A0 04:       ldy #$04
-	$D73C  B5 03:       lda $03,x
	$D73E  D1 21:       cmp ($21),y
	$D740  90 19:       bcc ++		; $D75B
	$D742  D0 04:       bne +		; $D748
	$D744  CA:          dex 
	$D745  88:          dey 
	$D746  10 F4:       bpl -		; $D73C
+	$D748  A0 00:       ldy #$00
	$D74A  A5 3E:       lda $3E
	$D74C  0A:          asl a
	$D74D  0A:          asl a
	$D74E  05 3E:       ora $3E
	$D750  AA:          tax 
-	$D751  B5 03:       lda $03,x
	$D753  91 21:       sta ($21),y
	$D755  E8:          inx 
	$D756  C8:          iny 
	$D757  C0 05:       cpy #$05
	$D759  D0 F6:       bne -		; $D751
++	$D75B  A0 04:       ldy #$04
-	$D75D  B1 21:       lda ($21),y
	$D75F  99 0D 00:    sta $000D,y
	$D762  88:          dey 
	$D763  10 F8:       bpl -		; $D75D
	$D765  E6 46:       inc $46
	$D767  A5 16:       lda $16
	$D769  F0 03:       beq +		; $D76E -> rts
	$D76B  20 2F C5:    jsr _func_452F
+	$D76E  60:          rts 
;------------------------------------------
_data_576F_indexed
	$D76F               .byte $29,$2E,$33
_func_5772
	$D772  84 12:       sty $12
	$D774  A2 FF:       ldx #$FF
	$D776  A5 43:       lda $43
-	$D778  38:          sec 
	$D779  E5 12:       sbc $12
	$D77B  E8:          inx 
	$D77C  B0 FA:       bcs -		; $D778
	$D77E  18:          clc 
	$D77F  65 12:       adc $12
	$D781  85 43:       sta $43
	$D783  8A:          txa 
	$D784  60:          rts 
;------------------------------------------
_func_5785
	$D785  C9 0A:       cmp #$0A
	$D787  B0 01:       bcs +		; $D78A
	$D789  60:          rts 

+	$D78A  38:          sec 
	$D78B  E9 0A:       sbc #$0A
	$D78D  60:          rts 
;------------------------------------------
_func_578E
	$D78E  A4 46:       ldy $46
	$D790  88:          dey 
	$D791  F0 03:       beq +		; $D796
	$D793  10 66:       bpl ++		; $D7FB
	$D795  60:          rts 

+	$D796  A9 20:       lda #$20
	$D798  8D 06 20:    sta $2006
	$D79B  A9 43:       lda #<_data_0E43
	$D79D  8D 06 20:    sta $2006
	$D7A0  A9 8E:       lda #>_data_0E43
	$D7A2  8D 07 20:    sta $2007
	$D7A5  A2 04:       ldx #$04
-	$D7A7  B5 03:       lda $03,x
	$D7A9  8D 07 20:    sta $2007
	$D7AC  CA:          dex 
	$D7AD  10 F8:       bpl -		; $D7A7
	$D7AF  A9 00:       lda #$00
	$D7B1  8D 07 20:    sta $2007
	$D7B4  A9 24:       lda #$24
	$D7B6  8D 07 20:    sta $2007
	$D7B9  8D 07 20:    sta $2007
	$D7BC  A2 8C:       ldx #$8C
	$D7BE  8E 07 20:    stx $2007
	$D7C1  E8:          inx 
	$D7C2  8E 07 20:    stx $2007
	$D7C5  A2 04:       ldx #$04
-	$D7C7  B5 0D:       lda $0D,x
	$D7C9  8D 07 20:    sta $2007
	$D7CC  CA:          dex 
	$D7CD  10 F8:       bpl -		; $D7C7
	$D7CF  A9 00:       lda #$00
	$D7D1  8D 07 20:    sta $2007
	$D7D4  A9 24:       lda #$24
	$D7D6  8D 07 20:    sta $2007
	$D7D9  8D 07 20:    sta $2007
	$D7DC  A5 16:       lda $16
	$D7DE  D0 6A:       bne ++++		; $D84A
	$D7E0  A5 40:       lda $40
	$D7E2  F0 14:       beq +		; $D7F8
	$D7E4  A9 8F:       lda #$8F
	$D7E6  8D 07 20:    sta $2007
	$D7E9  A2 04:       ldx #$04
-	$D7EB  B5 08:       lda $08,x
	$D7ED  8D 07 20:    sta $2007
	$D7F0  CA:          dex 
	$D7F1  10 F8:       bpl -		; $D7EB
	$D7F3  A9 00:       lda #$00
	$D7F5  8D 07 20:    sta $2007
+	$D7F8  C6 46:       dec $46
	$D7FA  60:          rts 

++	$D7FB  C6 46:       dec $46
	$D7FD  A9 20:       lda #$20
	$D7FF  8D 06 20:    sta $2006
	$D802  A9 62:       lda #$62
	$D804  8D 06 20:    sta $2006
	$D807  A5 41:       lda $41
	$D809  20 1C D8:    jsr _func_581C
	$D80C  A5 40:       lda $40
	$D80E  F0 20:       beq ++		; $D830 -> rts
	$D810  A9 20:       lda #$20
	$D812  8D 06 20:    sta $2006
	$D815  A9 75:       lda #$75
	$D817  8D 06 20:    sta $2006
	$D81A  A5 42:       lda $42
_func_581C
	$D81C  30 13:       bmi +++		; $D831
--	$D81E  85 50:       sta $50
	$D820  A2 06:       ldx #$06
-	$D822  A9 24:       lda #$24
	$D824  E4 50:       cpx $50
	$D826  B0 02:       bcs +		; $D82A
	$D828  A9 2A:       lda #$2A
+	$D82A  8D 07 20:    sta $2007
	$D82D  CA:          dex 
	$D82E  10 F2:       bpl -		; $D822
++	$D830  60:          rts 

+++	$D831  A5 40:       lda $40
	$D833  F0 E9:       beq --		; $D81E
	$D835  A2 08:       ldx #$08
-	$D837  BD 41 D8:    lda _data_5841_indexed,x
	$D83A  8D 07 20:    sta $2007
	$D83D  CA:          dex 
	$D83E  10 F7:       bpl -		; $D837
	$D840  60:          rts 
;------------------------------------------
_data_5841_indexed
	$D841               .byte $1B,$0E,$1F,$18,$24,$0E,$16,$0A,$10
++++	$D84A  A0 04:       ldy #$04
-	$D84C  B9 62 D8:    lda _data_5862_indexed,y
	$D84F  8D 07 20:    sta $2007
	$D852  88:          dey 
	$D853  10 F7:       bpl -		; $D84C
	$D855  A5 4A:       lda $4A
	$D857  8D 07 20:    sta $2007
	$D85A  A5 49:       lda $49
	$D85C  8D 07 20:    sta $2007
	$D85F  C6 46:       dec $46
	$D861  60:          rts 
;------------------------------------------
_data_5862_indexed
	$D862               .byte $FB,$FA,$F9,$F8,$F7
_func_5867
	$D867  85 12:       sta $12
	$D869  86 13:       stx $13
	$D86B  84 14:       sty $14
	$D86D  A2 01:       ldx #$01
-	$D86F  BD 1A 06:    lda $061A,x
	$D872  30 0E:       bmi +		; $D882
	$D874  CA:          dex 
	$D875  10 F8:       bpl -		; $D86F
	$D877  A2 01:       ldx #$01
	$D879  AD 19 06:    lda $0619
	$D87C  CD 18 06:    cmp $0618
	$D87F  90 01:       bcc +		; $D882
	$D881  CA:          dex 
+	$D882  A9 64:       lda #$64
	$D884  9D 18 06:    sta $0618,x
	$D887  A5 12:       lda $12
	$D889  9D 1A 06:    sta $061A,x
	$D88C  A8:          tay 
	$D88D  8A:          txa 
	$D88E  0A:          asl a
	$D88F  0A:          asl a
	$D890  0A:          asl a
	$D891  AA:          tax 
	$D892  B9 C7 D8:    lda _data_58C7_indexed,y
	$D895  9D F1 02:    sta $02F1,x
	$D898  B9 CD D8:    lda _data_58CD_indexed,y
	$D89B  9D F5 02:    sta $02F5,x
	$D89E  A4 13:       ldy $13
	$D8A0  B9 9A 00:    lda $009A,y
	$D8A3  38:          sec 
	$D8A4  E9 08:       sbc #$08
	$D8A6  9D F0 02:    sta $02F0,x
	$D8A9  9D F4 02:    sta $02F4,x
	$D8AC  B9 91 00:    lda $0091,y
	$D8AF  9D F3 02:    sta $02F3,x
	$D8B2  18:          clc 
	$D8B3  69 08:       adc #$08
	$D8B5  9D F7 02:    sta $02F7,x
	$D8B8  A5 3E:       lda $3E
	$D8BA  9D F2 02:    sta $02F2,x
	$D8BD  9D F6 02:    sta $02F6,x
	$D8C0  A4 14:       ldy $14
	$D8C2  A6 13:       ldx $13
	$D8C4  A5 12:       lda $12
	$D8C6  60:          rts 
;------------------------------------------
_data_58C7_indexed
	$D8C7               .byte $F4,$F5,$F6,$F7,$F8,$F9
_data_58CD_indexed
	$D8CD               .byte $FB,$FB,$FA,$FB,$FB,$FB
_func_58D3
	$D8D3  A2 01:       ldx #$01
-	$D8D5  BD 1A 06:    lda $061A,x
	$D8D8  30 17:       bmi +		; $D8F1
	$D8DA  DE 18 06:    dec $0618,x
	$D8DD  D0 12:       bne +		; $D8F1
	$D8DF  A9 FF:       lda #$FF
	$D8E1  9D 1A 06:    sta $061A,x
	$D8E4  8A:          txa 
	$D8E5  0A:          asl a
	$D8E6  0A:          asl a
	$D8E7  0A:          asl a
	$D8E8  A8:          tay 
	$D8E9  A9 F0:       lda #$F0
	$D8EB  99 F0 02:    sta $02F0,y
	$D8EE  99 F4 02:    sta $02F4,y
+	$D8F1  CA:          dex 
	$D8F2  10 E1:       bpl -		; $D8D5
	$D8F4  60:          rts 
;------------------------------------------
_func_58F5
	$D8F5  A2 01:       ldx #$01
-	$D8F7  A9 00:       lda #$00
	$D8F9  9D 18 06:    sta $0618,x
	$D8FC  A9 FF:       lda #$FF
	$D8FE  9D 1A 06:    sta $061A,x
	$D901  CA:          dex 
	$D902  10 F3:       bpl -		; $D8F7
	$D904  60:          rts 
;------------------------------------------
_func_5905
	$D905  20 3C D2:    jsr _func_523C
	$D908  20 00 C1:    jsr _func_4100
	$D90B  20 5B F4:    jsr _func_745B
	$D90E  20 F0 C0:    jsr _func_40F0
	$D911  A9 22:       lda #<_data_5922
	$D913  85 1D:       sta $1D
	$D915  A9 D9:       lda #>_data_5922
	$D917  85 1E:       sta $1E
	$D919  20 8D D4:    jsr _func_548D
	$D91C  20 FA C0:    jsr _func_40FA
	$D91F  4C 0B C1:    jmp _func_410B
;------------------------------------------
_data_5922
	$D922               .byte $26,$D9,$00,$00,$3F,$00,$04,$0F,$30,$27,$2A,$3F,$18,$04,$0F,$16
	$D932               .byte $30,$21,$20,$7C,$21,$F0,$F1,$24,$24,$24,$24,$E0,$E1,$E1,$E2,$E0
	$D942               .byte $E1,$E1,$E2,$E0,$E2,$24,$E0,$E2,$24,$E0,$E1,$E1,$E2,$E0,$E1,$E1
	$D952               .byte $E2,$E0,$EC,$24,$E0,$E2,$20,$A2,$1B,$E3,$E3,$E3,$E5,$E3,$E3,$E3
	$D962               .byte $E5,$E3,$E5,$24,$E3,$E5,$24,$E3,$E3,$E3,$E5,$E3,$E3,$E3,$E5,$E3
	$D972               .byte $E3,$F3,$E3,$E5,$20,$C2,$1B,$E3,$E4,$E3,$E7,$E3,$E4,$E3,$E5,$E3
	$D982               .byte $E5,$24,$E3,$E5,$24,$E3,$E4,$E3,$E5,$E3,$E4,$E3,$E5,$E3,$E3,$E3
	$D992               .byte $E3,$E5,$20,$E2,$1B,$E3,$E3,$E3,$E2,$E3,$E3,$E3,$E5,$E3,$E5,$24
	$D9A2               .byte $E3,$E5,$24,$E3,$E3,$E3,$E5,$E3,$E3,$E3,$E5,$E3,$E3,$E3,$E3,$E5
	$D9B2               .byte $21,$02,$1B,$E3,$E4,$E3,$E5,$E3,$F2,$E3,$E5,$E3,$E3,$E2,$E3,$E3
	$D9C2               .byte $E2,$E3,$E3,$E3,$E5,$E3,$E3,$E3,$E5,$E3,$F2,$E3,$E3,$E5,$21,$22
	$D9D2               .byte $1B,$E6,$E3,$E3,$E7,$EB,$24,$E6,$E7,$E6,$E3,$E7,$E6,$E3,$E7,$E6
	$D9E2               .byte $E3,$E3,$E7,$E6,$E3,$E3,$E7,$EB,$24,$E6,$E3,$E7,$21,$4C,$12,$E0
	$D9F2               .byte $E1,$E1,$E2,$E0,$E2,$E0,$E1,$E1,$E2,$E8,$24,$E0,$E2,$E0,$E1,$E1
	$DA02               .byte $E2,$21,$6C,$12,$E3,$E3,$E3,$E7,$E3,$E5,$E3,$F5,$F6,$E7,$E3,$F3
	$DA12               .byte $E3,$E5,$E6,$E3,$E3,$E7,$21,$8C,$12,$E3,$E3,$EF,$24,$E3,$E5,$E3
	$DA22               .byte $24,$24,$24,$E3,$E3,$E3,$E5,$24,$E3,$E5,$24,$21,$AC,$12,$E3,$E3
	$DA32               .byte $E1,$EA,$E3,$E5,$E3,$E9,$E3,$E2,$E3,$E3,$E3,$E5,$24,$E3,$E5,$24
	$DA42               .byte $21,$CC,$12,$E3,$E3,$EF,$24,$E3,$E5,$E3,$F3,$E3,$E5,$E3,$F2,$E3
	$DA52               .byte $E5,$24,$E3,$E5,$24,$21,$EC,$12,$E6,$E7,$24,$24,$E6,$E7,$E6,$E7
	$DA62               .byte $E6,$E7,$EB,$24,$E6,$E7,$24,$E6,$E7,$24,$22,$48,$10,$0A,$24,$24
	$DA72               .byte $01,$25,$19,$15,$0A,$22,$0E,$1B,$24,$10,$0A,$16,$0E,$22,$88,$10
	$DA82               .byte $0B,$24,$24,$02,$25,$19,$15,$0A,$22,$0E,$1B,$24,$10,$0A,$16,$0E
	$DA92               .byte $22,$C8,$10,$0C,$24,$24,$0B,$0A,$15,$15,$18,$18,$17,$24,$24,$1D
	$DAA2               .byte $1B,$12,$19,$23,$49,$0E,$F4,$01,$09,$08,$04,$24,$17,$12,$17,$1D
	$DAB2               .byte $0E,$17,$0D,$18,$00
_func_5AB7
	$DAB7  20 FA C0:    jsr _func_40FA
	$DABA  20 05 D9:    jsr _func_5905
	$DABD  A9 00:       lda #$00
	$DABF  85 19:       sta $19
-	$DAC1  20 5B F4:    jsr _func_745B
	$DAC4  A5 19:       lda $19
	$DAC6  F0 1F:       beq +++		; $DAE7
	$DAC8  20 FE DA:    jsr _func_5AFE
	$DACB  20 5E E7:    jsr _func_675E
	$DACE  AA:          tax 
	$DACF  29 10:       and #$10
	$DAD1  D0 13:       bne ++		; $DAE6 -> rts
	$DAD3  8A:          txa 
	$DAD4  29 20:       and #$20
	$DAD6  F0 0B:       beq +		; $DAE3 -> $DAC1
	$DAD8  A9 00:       lda #$00
	$DADA  85 19:       sta $19
	$DADC  A6 3F:       ldx $3F
	$DADE  BD FB DA:    lda _data_5AFB_indexed,x
	$DAE1  85 3F:       sta $3F
+	$DAE3  4C C1 DA:    jmp -		; $DAC1

++	$DAE6  60:          rts 

+++	$DAE7  E6 3A:       inc $3A
	$DAE9  E6 40:       inc $40
	$DAEB  A9 00:       lda #$00
	$DAED  8D 15 40:    sta $4015
	$DAF0  85 16:       sta $16
	$DAF2  20 E8 F1:    jsr _func_71E8
	$DAF5  A9 00:       lda #$00
	$DAF7  85 3A:       sta $3A
	$DAF9  F0 BC:       beq _func_5AB7
;------------------------------------------
_data_5AFB_indexed
	$DAFB               .byte $01,$02,$00
_func_5AFE
	$DAFE  A5 3F:       lda $3F
	$DB00  4A:          lsr a
	$DB01  85 16:       sta $16
	$DB03  A5 3F:       lda $3F
	$DB05  AA:          tax 
	$DB06  29 01:       and #$01
	$DB08  85 40:       sta $40
	$DB0A  BD 1D DB:    lda _data_5B1D_indexed,x
	$DB0D  8D 7B 05:    sta $057B
	$DB10  A9 2C:       lda #$2C
	$DB12  8D 67 05:    sta $0567
	$DB15  A2 00:       ldx #$00
	$DB17  8E 5D 05:    stx $055D
	$DB1A  4C 25 CE:    jmp _func_4E25
;------------------------------------------
_data_5B1D_indexed
	$DB1D               .byte $8C,$9C,$AC
_DataPointerTableLo_5B20
	$DB20  40:          .byte (DataTableEntry_5B40).lo
	$DB21  4F:          .byte (DataTableEntry_5B4F).lo
	$DB22  E8:          .byte (DataTableEntry_5BE8).lo
	$DB23  62:          .byte (DataTableEntry_5B62).lo
	$DB24  6D:          .byte (DataTableEntry_5B6D).lo
	$DB25  7E:          .byte (DataTableEntry_5B7E).lo
	$DB26  D7:          .byte (DataTableEntry_5BD7).lo
	$DB27  62:          .byte (DataTableEntry_5B62).lo
	$DB28               .byte $8F,$F9,$C0,$62,$A3,$0D,$D7,$62
_DataPointerTableHi_5B20
	$DB30  DB:          .byte (DataTableEntry_5B40).hi
	$DB31  DB:          .byte (DataTableEntry_5B4F).hi
	$DB32  DB:          .byte (DataTableEntry_5BE8).hi
	$DB33  DB:          .byte (DataTableEntry_5B62).hi
	$DB34  DB:          .byte (DataTableEntry_5B6D).hi
	$DB35  DB:          .byte (DataTableEntry_5B7E).hi
	$DB36  DB:          .byte (DataTableEntry_5BD7).hi
	$DB37  DB:          .byte (DataTableEntry_5B62).hi
	$DB38               .byte $DB,$DB,$DB,$DB,$DB,$DC,$DB,$DB
DataTableEntry_5B40
	$DB40               .byte $21,$DC,$2F,$DD,$00,$00,$10,$06,$FF,$FF,$8C,$DF,$02,$70,$DE
DataTableEntry_5B4F
	$DB4F               .byte $21,$DC,$2F,$DD,$41,$DD,$00,$00,$18,$0C,$04,$0E,$FF,$FF,$96,$DF
	$DB5F               .byte $04,$7C,$DE
DataTableEntry_5B62
	$DB62               .byte $C0,$DC,$00,$00,$FF,$FF,$A6,$DF,$00,$90,$DE
DataTableEntry_5B6D
	$DB6D               .byte $21,$DC,$54,$DD,$00,$00,$08,$06,$18,$0A,$FF,$FF,$A7,$DF,$06,$94
	$DB7D               .byte $DE
DataTableEntry_5B7E
	$DB7E               .byte $21,$DC,$73,$DD,$00,$00,$04,$06,$12,$08,$FF,$FF,$B7,$DF,$07,$B0
	$DB8E               .byte $DE,$21,$DC,$99,$DD,$00,$00,$06,$06,$14,$10,$FF,$0F,$0D,$01,$FF
	$DB9E               .byte $CA,$DF,$09,$D0,$DE,$21,$DC,$C4,$DD,$00,$00,$04,$06,$10,$0E,$FF
	$DBAE               .byte $08,$0E,$03,$0D,$09,$03,$12,$08,$03,$17,$0D,$03,$FF,$DD,$DF,$03
	$DBBE               .byte $F8,$DE,$21,$DC,$54,$DD,$00,$00,$10,$06,$1A,$0C,$FF,$08,$08,$01
	$DBCE               .byte $18,$04,$01,$FF,$A7,$DF,$06,$94,$DE
DataTableEntry_5BD7
	$DBD7               .byte $21,$DC,$D1,$DD,$00,$00,$0E,$06,$0C,$14,$FF,$FF,$ED,$DF,$06,$08
	$DBE7               .byte $DF
DataTableEntry_5BE8
	$DBE8               .byte $21,$DC,$F7,$DD,$00,$00,$04,$08,$16,$10,$FF,$FF,$FD,$DF,$09,$24
	$DBF8               .byte $DF,$21,$DC,$28,$DE,$00,$00,$04,$10,$18,$10,$FF,$0E,$06,$01,$FF
	$DC08               .byte $0D,$E0,$07,$4C,$DF,$21,$DC,$51,$DE,$00,$00,$04,$08,$0E,$10,$FF
	$DC18               .byte $10,$07,$01,$FF,$20,$E0,$07,$6C,$DF,$23,$40,$88,$39,$38,$39,$38
	$DC28               .byte $39,$38,$39,$33,$24,$24,$24,$24,$24,$24,$24,$24,$24,$24,$24,$24
	$DC38               .byte $24,$24,$24,$24,$30,$38,$39,$38,$39,$38,$39,$38,$3C,$3B,$3C,$3B
	$DC48               .byte $3C,$3B,$3C,$3D,$58,$59,$5A,$5B,$58,$59,$5A,$5B,$58,$59,$5A,$5B
	$DC58               .byte $58,$59,$5A,$5B,$3A,$3B,$3C,$3B,$3C,$3B,$3C,$3B,$60,$61,$62,$63
	$DC68               .byte $60,$61,$62,$63,$5C,$5D,$5E,$5F,$5C,$5D,$5E,$5F,$5C,$5D,$5E,$5F
	$DC78               .byte $5C,$5D,$5E,$5F,$60,$61,$62,$63,$60,$61,$62,$63,$5C,$5D,$5E,$5F
	$DC88               .byte $5C,$5D,$5E,$5F,$5C,$5D,$5E,$5F,$5C,$5D,$5E,$5F,$5C,$5D,$5E,$5F
	$DC98               .byte $5C,$5D,$5E,$5F,$5C,$5D,$5E,$5F,$5C,$5D,$5E,$5F
_data_5CA4_indexed
	$DCA4               .byte $40,$50,$50,$50,$50,$90,$A0,$A0,$23,$F0,$10,$00,$00,$A0,$A0,$A0
	$DCB4               .byte $A0,$00,$00,$0A,$0A,$0A,$0A,$0A,$0A,$0A,$0A,$00,$A3,$04,$04,$93
	$DCC4               .byte $94,$94,$94,$A3,$05,$04,$95,$96,$96,$96,$A2,$EA,$05,$93,$94,$94
	$DCD4               .byte $94,$94,$A2,$EB,$05,$95,$96,$96,$96,$96,$A3,$34,$03,$93,$94,$94
	$DCE4               .byte $A3,$35,$03,$95,$96,$96,$A3,$1A,$04,$93,$94,$94,$94,$A3,$1B,$04
	$DCF4               .byte $95,$96,$96,$96,$63,$80,$20,$97,$23,$A0,$20,$98,$99,$98,$99,$98
	$DD04               .byte $99,$98,$99,$98,$99,$98,$99,$98,$99,$98,$99,$98,$99,$98,$99,$98
	$DD14               .byte $99,$98,$99,$98,$99,$98,$99,$98,$99,$98,$99,$23,$C0,$08,$40,$50
	$DD24               .byte $50,$50,$50,$90,$A0,$A0,$63,$E8,$10,$FF,$00,$22,$49,$0E,$30,$31
	$DD34               .byte $32,$31,$32,$31,$32,$31,$32,$31,$32,$31,$32,$33,$00,$21,$57,$06
	$DD44               .byte $30,$31,$32,$31,$32,$33,$21,$65,$06,$30,$31,$32,$31,$32,$33,$00
	$DD54               .byte $21,$90,$03,$30,$31,$33,$22,$26,$03,$30,$31,$33,$22,$57,$03,$30
	$DD64               .byte $31,$33,$22,$6C,$03,$30,$31,$33,$22,$F2,$03,$30,$31,$33,$00,$20
	$DD74               .byte $CB,$03,$30,$31,$33,$A1,$6D,$03,$3E,$3F,$40,$A1,$59,$04,$3E,$3F
	$DD84               .byte $3F,$40,$A1,$A5,$03,$3E,$3F,$40,$22,$AA,$03,$30,$31,$33,$22,$B3
	$DD94               .byte $03,$30,$31,$33,$00,$20,$E2,$02,$30,$33,$20,$FB,$02,$30,$33,$21
	$DDA4               .byte $57,$02,$30,$33,$21,$93,$02,$30,$33,$22,$0B,$02,$30,$33,$22,$47
	$DDB4               .byte $02,$30,$33,$22,$83,$02,$30,$33,$22,$CF,$04,$30,$31,$32,$33,$00
	$DDC4               .byte $22,$CA,$03,$30,$31,$33,$22,$D2,$03,$30,$31,$33,$00,$21,$08,$04
	$DDD4               .byte $30,$31,$32,$33,$21,$14,$04,$30,$31,$32,$33,$A1,$A5,$04,$3E,$3F
	$DDE4               .byte $3F,$40,$A1,$BA,$04,$3E,$3F,$3F,$40,$22,$6C,$06,$30,$31,$32,$31
	$DDF4               .byte $32,$33,$00,$22,$EE,$04,$30,$31,$32,$33,$20,$F9,$03,$30,$31,$33
	$DE04               .byte $A1,$1A,$03,$3F,$3F,$40,$21,$90,$03,$30,$31,$33,$A1,$B1,$03,$3F
	$DE14               .byte $3F,$40,$22,$28,$03,$30,$31,$33,$A2,$49,$03,$3F,$3F,$40,$20,$EA
	$DE24               .byte $02,$30,$33,$00,$A2,$6C,$03,$3E,$3F,$40,$A2,$73,$03,$3E,$3F,$40
	$DE34               .byte $20,$E4,$04,$30,$31,$32,$33,$20,$F8,$04,$30,$31,$32,$33,$21,$A8
	$DE44               .byte $04,$30,$31,$32,$33,$21,$B5,$04,$30,$31,$32,$33,$00,$22,$64,$02
	$DE54               .byte $30,$33,$22,$08,$02,$30,$33,$21,$AC,$02,$30,$33,$21,$B4,$02,$30
	$DE64               .byte $33,$22,$18,$02,$30,$33,$22,$7C,$02,$30,$33,$00,$10,$C8,$48,$38
	$DE74               .byte $FF,$B8,$CF,$CF,$8F,$E0,$E0,$98,$10,$C4,$48,$B8,$28,$3C,$FF,$B8
	$DE84               .byte $E8,$58,$CF,$CF,$8F,$4F,$57,$E0,$E0,$98,$58,$60,$10,$FF,$DF,$EC
	$DE94               .byte $10,$C8,$80,$30,$B8,$60,$90,$38,$FF,$98,$48,$D0,$78,$A8,$CF,$CF
	$DEA4               .byte $5F,$87,$8F,$97,$B7,$E0,$E0,$68,$90,$98,$A0,$C0,$10,$C8,$58,$68
	$DEB4               .byte $C8,$28,$50,$98,$38,$FF,$70,$78,$D0,$30,$68,$B0,$CF,$CF,$2F,$57
	$DEC4               .byte $4F,$67,$A7,$A7,$E0,$E0,$38,$6C,$6C,$7C,$B0,$B0,$10,$C8,$12,$DA
	$DED4               .byte $BA,$9A,$5A,$3A,$1A,$7A,$38,$FF,$1E,$E6,$C6,$A6,$66,$46,$26,$96
	$DEE4               .byte $CF,$CF,$37,$37,$4F,$5F,$7F,$8F,$9F,$AF,$E0,$E0,$40,$40,$58,$68
	$DEF4               .byte $88,$98,$A8,$B8,$10,$C8,$52,$92,$38,$FF,$66,$A6,$CF,$CF,$AF,$AF
	$DF04               .byte $E0,$E0,$B8,$B8,$10,$C8,$40,$A0,$28,$D0,$60,$38,$FF,$60,$C0,$30
	$DF14               .byte $D8,$90,$CF,$CF,$3F,$3F,$67,$67,$97,$E0,$E0,$48,$48,$88,$88,$A0
	$DF24               .byte $10,$C8,$50,$C8,$88,$40,$70,$D0,$88,$48,$38,$FF,$60,$E0,$98,$58
	$DF34               .byte $90,$D8,$90,$50,$CF,$CF,$37,$37,$5F,$87,$B7,$3C,$64,$8C,$E0,$E0
	$DF44               .byte $40,$40,$68,$90,$C0,$60,$80,$A8,$10,$C8,$20,$C0,$40,$A8,$60,$98
	$DF54               .byte $38,$FF,$40,$E0,$60,$C8,$68,$A0,$CF,$CF,$37,$37,$67,$67,$97,$97
	$DF64               .byte $E0,$E0,$40,$40,$70,$70,$B0,$B0,$10,$C8,$20,$40,$60,$A0,$C0,$E0
	$DF74               .byte $38,$FF,$30,$50,$70,$B0,$D0,$F0,$CF,$CF,$97,$7F,$67,$67,$7F,$97
	$DF84               .byte $E0,$E0,$A0,$88,$70,$70,$88,$A0,$03,$58,$78,$04,$78,$78,$04,$98
	$DF94               .byte $78,$04,$05,$C8,$38,$05,$38,$40,$05,$58,$78,$04,$78,$78,$04,$98
	$DFA4               .byte $78,$04,$00,$05,$94,$A0,$06,$84,$48,$05,$34,$70,$04,$64,$80,$04
	$DFB4               .byte $BC,$78,$04,$06,$5C,$18,$06,$24,$50,$05,$64,$40,$05,$C4,$38,$05
	$DFC4               .byte $54,$90,$04,$9C,$90,$04,$06,$10,$20,$06,$D8,$20,$06,$B8,$38,$05
	$DFD4               .byte $98,$48,$05,$58,$68,$05,$38,$78,$04,$05,$54,$98,$05,$94,$98,$05
	$DFE4               .byte $6C,$39,$06,$94,$31,$06,$BC,$59,$06,$05,$50,$28,$06,$A8,$28,$06
	$DFF4               .byte $24,$50,$06,$CC,$50,$06,$70,$80,$04,$05,$50,$20,$06,$C8,$20,$06
	$E004               .byte $84,$48,$05,$44,$70,$05,$78,$A0,$04,$06,$28,$20,$06,$C8,$20,$06
	$E014               .byte $48,$50,$05,$B0,$50,$05,$5C,$80,$04,$94,$80,$04,$06,$20,$80,$04
	$E024               .byte $40,$68,$05,$60,$50,$06,$A0,$50,$06,$C0,$68,$05,$E0,$80,$04
_data_6033_indexed
	$E033               .byte $08,$08,$F0,$08,$08,$00
_data_6039
	$E039               .byte $00,$00,$00,$08,$08,$08,$00,$00,$01,$08,$08,$09,$00,$00,$FF,$08
	$E049               .byte $08,$07,$FE,$00,$00,$06,$08,$08,$02,$00,$00,$0A,$08,$08,$02,$00
	$E059               .byte $01,$0A,$08,$09,$04,$00,$00,$0C,$08,$08,$00,$00,$FE,$08,$08,$06
	$E069               .byte $FD,$FD,$FD,$05,$05,$05
_data_606F
	$E06F               .byte $08,$08,$08,$00,$00,$00,$08,$08,$07,$00,$00,$FF,$08,$08,$09,$00
	$E07F               .byte $00,$01,$0A,$08,$08,$02,$00,$00,$06,$08,$08,$FE,$00,$00,$06,$08
	$E08F               .byte $07,$FE,$00,$FF,$04,$08,$08,$FC,$00,$00,$08,$08,$0A,$00,$00,$02
	$E09F               .byte $0B,$0B,$0B,$03,$03,$03
DataTableEntry_60A5
	$E0A5               .byte $00,$00,$01,$02,$03,$04,$05
DataTableEntry_60AC
	$E0AC               .byte $00,$00,$01,$02,$03,$06,$07
DataTableEntry_60B3
	$E0B3               .byte $00,$00,$01,$02,$03,$06,$08
DataTableEntry_60BA
	$E0BA               .byte $00,$09,$0A,$02,$0B,$0C,$05
DataTableEntry_60C1
	$E0C1               .byte $00,$00,$01,$02,$03,$04,$05
DataTableEntry_60C8
	$E0C8               .byte $00,$00,$01,$02,$0D,$0E,$05
DataTableEntry_60CF
	$E0CF               .byte $00,$1A,$1B,$1C,$1D,$1E,$1F
DataTableEntry_60D6
	$E0D6               .byte $01,$1A,$1B,$20,$1D,$1E,$FC
DataTableEntry_60DD
	$E0DD               .byte $00,$1A,$21,$22,$1D,$23,$24
DataTableEntry_60E4
	$E0E4               .byte $00,$00,$38,$35,$0D,$39,$37
DataTableEntry_60EB
	$E0EB               .byte $00,$00,$34,$35,$03,$36,$37
DataTableEntry_60F2
	$E0F2               .byte $00,$09,$3A,$35,$0B,$3B,$37,$00,$CE,$CF,$D0,$D1,$D2,$D3
DataTableEntry_6100
	$E100               .byte $00,$25,$26,$27,$28,$29,$2A
DataTableEntry_6107
	$E107               .byte $01,$28,$29,$2C,$25,$26,$2B
DataTableEntry_610E
	$E10E               .byte $00,$4C,$CC,$02,$4D,$CD,$05
DataTableEntry_6115
	$E115               .byte $00,$4C,$2F,$22,$4D,$30,$24
DataTableEntry_611C
	$E11C               .byte $07,$4C,$2F,$35,$4D,$30,$37
DataTableEntry_6123
	$E123               .byte $02,$4C,$2F,$27,$4D,$30,$2A,$07,$4C,$2F,$2B,$4D,$30,$2C,$00,$0F
	$E133               .byte $10,$02,$11,$12,$05,$00,$0F,$10,$02,$11,$19,$07,$00,$0F,$10,$02
	$E143               .byte $11,$19,$08,$00,$13,$14,$02,$15,$16,$05,$00,$0F,$10,$02,$11,$12
	$E153               .byte $05,$03,$13,$17,$02,$15,$18,$05,$04,$13,$2D,$1C,$15,$2E,$1F,$05
	$E163               .byte $13,$2D,$20,$15,$2E,$FC,$04,$13,$2F,$22,$15,$30,$24,$00,$13,$3C
	$E173               .byte $35,$15,$3D,$37
DataTableEntry_6177
	$E177               .byte $00,$0F,$40,$35,$11,$41,$37,$03,$13,$3E,$35,$15,$3F,$37
DataTableEntry_6185
	$E185               .byte $00,$D4,$D5,$D0,$D6,$D7,$D3,$00,$25,$31,$27,$32,$33,$2A,$02,$25
	$E195               .byte $31,$27,$32,$33,$2A,$00,$FC,$48,$42,$FC,$49,$43,$00,$FC,$48,$44
	$E1A5               .byte $FC,$49,$45,$00,$FC,$4A,$46,$FC,$4B,$47,$00,$FC,$A4,$A5,$FC,$A6
	$E1B5               .byte $A7
DataTableEntry_61B6
	$E1B6               .byte $08,$FC,$71,$FC,$FC,$72,$73
DataTableEntry_61BD
	$E1BD               .byte $08,$FC,$74,$FC,$FC,$75,$76,$08,$FC,$71,$77,$FC,$72,$73,$08,$FC
	$E1CD               .byte $74,$77,$FC,$75,$76,$08,$FC,$71,$78,$FC,$72,$73,$08,$FC,$74,$78
	$E1DD               .byte $FC,$75,$76,$08,$FC,$71,$79,$FC,$72,$73,$08,$FC,$74,$79,$FC,$75
	$E1ED               .byte $76
DataTableEntry_61EE
	$E1EE               .byte $00,$4E,$4F,$50,$51,$52,$53
DataTableEntry_61F5
	$E1F5               .byte $00,$4E,$4F,$50,$51,$5E,$58
DataTableEntry_61FC
	$E1FC               .byte $00,$4E,$4F,$50,$51,$5E,$5D
DataTableEntry_6203
	$E203               .byte $00,$54,$55,$50,$56,$57,$53
DataTableEntry_620A
	$E20A               .byte $00,$4E,$4F,$50,$51,$52,$53
DataTableEntry_6211
	$E211               .byte $00,$59,$5A,$50,$5B,$5C,$53
DataTableEntry_6218
	$E218               .byte $00,$FC,$5F,$60,$FC,$61,$62
DataTableEntry_621F
	$E21F               .byte $06,$63,$64,$60,$FC,$65,$62
DataTableEntry_6226
	$E226               .byte $00,$66,$67,$60,$68,$69,$62,$00,$6A,$67,$60,$6B,$69,$62
DataTableEntry_6234
	$E234               .byte $00,$FC,$6C,$6D,$FC,$6E,$6F,$00,$FC,$6C,$6D,$FC,$6E,$70
_DataPointerTableLo_6242
	$E242  A5:          .byte (DataTableEntry_60A5).lo
	$E243  AC:          .byte (DataTableEntry_60AC).lo
	$E244  B3:          .byte (DataTableEntry_60B3).lo
	$E245  AC:          .byte (DataTableEntry_60AC).lo
	$E246  BA:          .byte (DataTableEntry_60BA).lo
	$E247  C1:          .byte (DataTableEntry_60C1).lo
	$E248  C8:          .byte (DataTableEntry_60C8).lo
	$E249  C1:          .byte (DataTableEntry_60C1).lo
	$E24A  CF:          .byte (DataTableEntry_60CF).lo
	$E24B  D6:          .byte (DataTableEntry_60D6).lo
	$E24C  DD:          .byte (DataTableEntry_60DD).lo
	$E24D  D6:          .byte (DataTableEntry_60D6).lo
	$E24E  E4:          .byte (DataTableEntry_60E4).lo
	$E24F  EB:          .byte (DataTableEntry_60EB).lo
	$E250  F2:          .byte (DataTableEntry_60F2).lo
	$E251  EB:          .byte (DataTableEntry_60EB).lo
	$E252  00:          .byte (DataTableEntry_6100).lo
	$E253  00:          .byte (DataTableEntry_6100).lo
	$E254  00:          .byte (DataTableEntry_6100).lo
	$E255  00:          .byte (DataTableEntry_6100).lo
	$E256  07:          .byte (DataTableEntry_6107).lo
	$E257  07:          .byte (DataTableEntry_6107).lo
	$E258  07:          .byte (DataTableEntry_6107).lo
	$E259  07:          .byte (DataTableEntry_6107).lo
	$E25A  0E:          .byte (DataTableEntry_610E).lo
	$E25B  0E:          .byte (DataTableEntry_610E).lo
	$E25C  0E:          .byte (DataTableEntry_610E).lo
	$E25D  0E:          .byte (DataTableEntry_610E).lo
	$E25E  15:          .byte (DataTableEntry_6115).lo
	$E25F  15:          .byte (DataTableEntry_6115).lo
	$E260  15:          .byte (DataTableEntry_6115).lo
	$E261  15:          .byte (DataTableEntry_6115).lo
	$E262  1C:          .byte (DataTableEntry_611C).lo
	$E263  1C:          .byte (DataTableEntry_611C).lo
	$E264  1C:          .byte (DataTableEntry_611C).lo
	$E265  1C:          .byte (DataTableEntry_611C).lo
	$E266  23:          .byte (DataTableEntry_6123).lo
	$E267  23:          .byte (DataTableEntry_6123).lo
	$E268               .byte $23,$23,$2A,$2A,$2A,$2A,$31,$38,$3F,$38,$46,$4D,$54,$4D,$5B,$62
	$E278               .byte $69,$62,$70,$77,$7E,$77,$8C,$8C,$8C,$8C,$93,$93,$93,$93,$9A,$A1
	$E288               .byte $A8,$A1,$AF,$9A,$AF,$9A
_DataPointerTableHi_6242
	$E28E  E0:          .byte (DataTableEntry_60A5).hi
	$E28F  E0:          .byte (DataTableEntry_60AC).hi
	$E290  E0:          .byte (DataTableEntry_60B3).hi
	$E291  E0:          .byte (DataTableEntry_60AC).hi
	$E292  E0:          .byte (DataTableEntry_60BA).hi
	$E293  E0:          .byte (DataTableEntry_60C1).hi
	$E294  E0:          .byte (DataTableEntry_60C8).hi
	$E295  E0:          .byte (DataTableEntry_60C1).hi
	$E296  E0:          .byte (DataTableEntry_60CF).hi
	$E297  E0:          .byte (DataTableEntry_60D6).hi
	$E298  E0:          .byte (DataTableEntry_60DD).hi
	$E299  E0:          .byte (DataTableEntry_60D6).hi
	$E29A  E0:          .byte (DataTableEntry_60E4).hi
	$E29B  E0:          .byte (DataTableEntry_60EB).hi
	$E29C  E0:          .byte (DataTableEntry_60F2).hi
	$E29D  E0:          .byte (DataTableEntry_60EB).hi
	$E29E  E1:          .byte (DataTableEntry_6100).hi
	$E29F  E1:          .byte (DataTableEntry_6100).hi
	$E2A0  E1:          .byte (DataTableEntry_6100).hi
	$E2A1  E1:          .byte (DataTableEntry_6100).hi
	$E2A2  E1:          .byte (DataTableEntry_6107).hi
	$E2A3  E1:          .byte (DataTableEntry_6107).hi
	$E2A4  E1:          .byte (DataTableEntry_6107).hi
	$E2A5  E1:          .byte (DataTableEntry_6107).hi
	$E2A6  E1:          .byte (DataTableEntry_610E).hi
	$E2A7  E1:          .byte (DataTableEntry_610E).hi
	$E2A8  E1:          .byte (DataTableEntry_610E).hi
	$E2A9  E1:          .byte (DataTableEntry_610E).hi
	$E2AA  E1:          .byte (DataTableEntry_6115).hi
	$E2AB  E1:          .byte (DataTableEntry_6115).hi
	$E2AC  E1:          .byte (DataTableEntry_6115).hi
	$E2AD  E1:          .byte (DataTableEntry_6115).hi
	$E2AE  E1:          .byte (DataTableEntry_611C).hi
	$E2AF  E1:          .byte (DataTableEntry_611C).hi
	$E2B0  E1:          .byte (DataTableEntry_611C).hi
	$E2B1  E1:          .byte (DataTableEntry_611C).hi
	$E2B2  E1:          .byte (DataTableEntry_6123).hi
	$E2B3  E1:          .byte (DataTableEntry_6123).hi
	$E2B4               .byte $E1,$E1,$E1,$E1,$E1,$E1,$E1,$E1,$E1,$E1,$E1,$E1,$E1,$E1,$E1,$E1
	$E2C4               .byte $E1,$E1,$E1,$E1,$E1,$E1,$E1,$E1,$E1,$E1,$E1,$E1,$E1,$E1,$E1,$E1
	$E2D4               .byte $E1,$E1,$E1,$E1,$E1,$E1
_DataPointerTableLo_62DA
	$E2DA  77:          .byte (DataTableEntry_6177).lo
	$E2DB  77:          .byte (DataTableEntry_6177).lo
	$E2DC  85:          .byte (DataTableEntry_6185).lo
	$E2DD  77:          .byte (DataTableEntry_6177).lo
	$E2DE               .byte $EB,$EB,$F9,$EB
_DataPointerTableHi_62DA
	$E2E2  E1:          .byte (DataTableEntry_6177).hi
	$E2E3  E1:          .byte (DataTableEntry_6177).hi
	$E2E4  E1:          .byte (DataTableEntry_6185).hi
	$E2E5  E1:          .byte (DataTableEntry_6177).hi
	$E2E6               .byte $E0,$E0,$E0,$E0
_DataPointerTableLo_62EA
	$E2EA  EE:          .byte (DataTableEntry_61EE).lo
	$E2EB  F5:          .byte (DataTableEntry_61F5).lo
	$E2EC  FC:          .byte (DataTableEntry_61FC).lo
	$E2ED  F5:          .byte (DataTableEntry_61F5).lo
	$E2EE  03:          .byte (DataTableEntry_6203).lo
	$E2EF  0A:          .byte (DataTableEntry_620A).lo
	$E2F0  11:          .byte (DataTableEntry_6211).lo
	$E2F1  0A:          .byte (DataTableEntry_620A).lo
	$E2F2  34:          .byte (DataTableEntry_6234).lo
	$E2F3  34:          .byte (DataTableEntry_6234).lo
	$E2F4  18:          .byte (DataTableEntry_6218).lo
	$E2F5  1F:          .byte (DataTableEntry_621F).lo
	$E2F6  26:          .byte (DataTableEntry_6226).lo
	$E2F7  26:          .byte (DataTableEntry_6226).lo
	$E2F8  26:          .byte (DataTableEntry_6226).lo
	$E2F9  26:          .byte (DataTableEntry_6226).lo
	$E2FA  B6:          .byte (DataTableEntry_61B6).lo
	$E2FB  B6:          .byte (DataTableEntry_61B6).lo
	$E2FC  B6:          .byte (DataTableEntry_61B6).lo
	$E2FD  B6:          .byte (DataTableEntry_61B6).lo
	$E2FE  B6:          .byte (DataTableEntry_61B6).lo
	$E2FF  BD:          .byte (DataTableEntry_61BD).lo
	$E300               .byte $B6,$BD,$C4,$CB,$C4,$CB,$D2,$D9,$D2,$D9,$E0,$E7,$E0,$E7,$34,$3B
	$E310               .byte $34,$3B,$2D,$2D,$2D,$2D
_DataPointerTableHi_62EA
	$E316  E1:          .byte (DataTableEntry_61EE).hi
	$E317  E1:          .byte (DataTableEntry_61F5).hi
	$E318  E1:          .byte (DataTableEntry_61FC).hi
	$E319  E1:          .byte (DataTableEntry_61F5).hi
	$E31A  E2:          .byte (DataTableEntry_6203).hi
	$E31B  E2:          .byte (DataTableEntry_620A).hi
	$E31C  E2:          .byte (DataTableEntry_6211).hi
	$E31D  E2:          .byte (DataTableEntry_620A).hi
	$E31E  E2:          .byte (DataTableEntry_6234).hi
	$E31F  E2:          .byte (DataTableEntry_6234).hi
	$E320  E2:          .byte (DataTableEntry_6218).hi
	$E321  E2:          .byte (DataTableEntry_621F).hi
	$E322  E2:          .byte (DataTableEntry_6226).hi
	$E323  E2:          .byte (DataTableEntry_6226).hi
	$E324  E2:          .byte (DataTableEntry_6226).hi
	$E325  E2:          .byte (DataTableEntry_6226).hi
	$E326  E1:          .byte (DataTableEntry_61B6).hi
	$E327  E1:          .byte (DataTableEntry_61B6).hi
	$E328  E1:          .byte (DataTableEntry_61B6).hi
	$E329  E1:          .byte (DataTableEntry_61B6).hi
	$E32A  E1:          .byte (DataTableEntry_61B6).hi
	$E32B  E1:          .byte (DataTableEntry_61BD).hi
	$E32C               .byte $E1,$E1,$E1,$E1,$E1,$E1,$E1,$E1,$E1,$E1,$E1,$E1,$E1,$E1,$E2,$E2
	$E33C               .byte $E2,$E2,$E2,$E2,$E2,$E2
_data_6342_indexed
	$E342               .byte $44,$2C,$00
_data_6345_indexed
	$E345               .byte $00,$00,$04
_data_6348_indexed
	$E348               .byte $24,$08,$00
DataTableEntry_634B
	$E34B               .byte $00,$FC,$FC,$FE,$FC
DataTableEntry_6350
	$E350               .byte $00,$7B,$FC,$FC,$7C,$FC,$FC
DataTableEntry_6357
	$E357               .byte $00,$7D,$7E,$FC,$7F,$80,$FC
DataTableEntry_635E
	$E35E               .byte $00,$81,$82,$83,$84,$85,$86
DataTableEntry_6365
	$E365               .byte $00,$87,$88,$FC,$89,$8A,$FC
DataTableEntry_636C
	$E36C               .byte $00,$8B,$8C,$FC,$8D,$8E,$FC
DataTableEntry_6373
	$E373               .byte $00,$8F,$90,$FC,$FC,$FC,$FC
_DataPointerTableLo_637A
	$E37A  4B:          .byte (DataTableEntry_634B).lo
	$E37B  50:          .byte (DataTableEntry_6350).lo
	$E37C  57:          .byte (DataTableEntry_6357).lo
	$E37D  5E:          .byte (DataTableEntry_635E).lo
	$E37E  65:          .byte (DataTableEntry_6365).lo
	$E37F  6C:          .byte (DataTableEntry_636C).lo
	$E380  73:          .byte (DataTableEntry_6373).lo
_DataPointerTableHi_637A
	$E381  E3:          .byte (DataTableEntry_634B).hi
	$E382  E3:          .byte (DataTableEntry_6350).hi
	$E383  E3:          .byte (DataTableEntry_6357).hi
	$E384  E3:          .byte (DataTableEntry_635E).hi
	$E385  E3:          .byte (DataTableEntry_6365).hi
	$E386  E3:          .byte (DataTableEntry_636C).hi
	$E387  E3:          .byte (DataTableEntry_6373).hi
_data_6388_indexed
	$E388               .byte $20,$38,$50,$68,$80,$98,$B0,$C8,$08
_data_6391_indexed
	$E391               .byte $20,$38,$C8,$B0,$98,$80,$68,$50,$08
_func_639A
	$E39A  BD 88 E3:    lda _data_6388_indexed,x
	$E39D  85 1F:       sta $1F
	$E39F  A5 19:       lda $19
	$E3A1  4A:          lsr a
	$E3A2  90 05:       bcc +		; $E3A9
	$E3A4  BD 91 E3:    lda _data_6391_indexed,x
	$E3A7  85 1F:       sta $1F
+	$E3A9  A9 02:       lda #$02
	$E3AB  85 20:       sta $20
	$E3AD  B5 88:       lda $88,x
	$E3AF  10 14:       bpl ++		; $E3C5
	$E3B1  C9 FF:       cmp #$FF
	$E3B3  F0 03:       beq +		; $E3B8
	$E3B5  4C CB E4:    jmp ++++		; $E4CB

+ --	$E3B8  A0 14:       ldy #$14
-	$E3BA  A9 F0:       lda #$F0
	$E3BC  91 1F:       sta ($1F),y
	$E3BE  88:          dey 
	$E3BF  88:          dey 
	$E3C0  88:          dey 
	$E3C1  88:          dey 
	$E3C2  10 F6:       bpl -		; $E3BA
	$E3C4  60:          rts 

++	$E3C5  E0 08:       cpx #$08
	$E3C7  F0 48:       beq ++		; $E411
	$E3C9  B5 7F:       lda $7F,x
	$E3CB  0A:          asl a
	$E3CC  0A:          asl a
	$E3CD  7D 36 04:    adc $0436,x
	$E3D0  E0 02:       cpx #$02
	$E3D2  B0 2A:       bcs +		; $E3FE
	$E3D4  B4 88:       ldy $88,x
	$E3D6  79 42 E3:    adc _data_6342_indexed,y
	$E3D9  A8:          tay 
	$E3DA  B9 42 E2:    lda _DataPointerTableLo_6242,y
	$E3DD  85 1D:       sta $1D
	$E3DF  B9 8E E2:    lda _DataPointerTableHi_6242,y
	$E3E2  85 1E:       sta $1E
	$E3E4  B5 BD:       lda $BD,x
	$E3E6  F0 37:       beq +++		; $E41F
	$E3E8  B4 88:       ldy $88,x
	$E3EA  B9 45 E3:    lda _data_6345_indexed,y
	$E3ED  7D 36 04:    adc $0436,x
	$E3F0  A8:          tay 
	$E3F1  B9 DA E2:    lda _DataPointerTableLo_62DA,y
	$E3F4  85 1D:       sta $1D
	$E3F6  B9 E2 E2:    lda _DataPointerTableHi_62DA,y
	$E3F9  85 1E:       sta $1E
	$E3FB  4C 1F E4:    jmp +++		; $E41F

+	$E3FE  B4 88:       ldy $88,x
	$E400  18:          clc 
	$E401  79 48 E3:    adc _data_6348_indexed,y
	$E404  A8:          tay 
	$E405  B9 EA E2:    lda _DataPointerTableLo_62EA,y
	$E408  85 1D:       sta $1D
	$E40A  B9 16 E3:    lda _DataPointerTableHi_62EA,y
	$E40D  85 1E:       sta $1E
	$E40F  D0 0E:       bne +++		; $E41F
++	$E411  B4 7F:       ldy $7F,x
	$E413  30 A3:       bmi --		; $E3B8
	$E415  B9 7A E3:    lda _DataPointerTableLo_637A,y
	$E418  85 1D:       sta $1D
	$E41A  B9 81 E3:    lda _DataPointerTableHi_637A,y
	$E41D  85 1E:       sta $1E
+++	$E41F  B5 91:       lda $91,x
	$E421  85 15:       sta $15
	$E423  B5 9A:       lda $9A,x
	$E425  85 12:       sta $12
	$E427  8A:          txa 
	$E428  F0 10:       beq ++		; $E43A
	$E42A  E0 01:       cpx #$01
	$E42C  D0 04:       bne +		; $E432
	$E42E  A9 01:       lda #$01
	$E430  D0 08:       bne ++		; $E43A

+	$E432  BD 51 04:    lda $0451,x
	$E435  18:          clc 
	$E436  69 02:       adc #$02
	$E438  29 03:       and #$03
++	$E43A  BC 48 04:    ldy $0448,x
	$E43D  F0 02:       beq +		; $E441
	$E43F  09 40:       ora #$40
+	$E441  B4 88:       ldy $88,x
	$E443  C0 02:       cpy #$02
	$E445  D0 08:       bne +		; $E44F
	$E447  B4 7F:       ldy $7F,x
	$E449  C0 05:       cpy #$05
	$E44B  D0 02:       bne +		; $E44F
	$E44D  49 40:       eor #$40
+	$E44F  B4 9A:       ldy $9A,x
	$E451  C0 C9:       cpy #$C9
	$E453  B0 04:       bcs +		; $E459
	$E455  E0 09:       cpx #$09
	$E457  D0 02:       bne ++		; $E45B
+	$E459  09 20:       ora #$20
++	$E45B  85 14:       sta $14
	$E45D  A9 39:       lda #<_data_6039
	$E45F  85 21:       sta $21
	$E461  A9 E0:       lda #>_data_6039
	$E463  85 22:       sta $22
	$E465  BD 48 04:    lda $0448,x
	$E468  F0 08:       beq +		; $E472
	$E46A  A9 6F:       lda #<_data_606F
	$E46C  85 21:       sta $21
	$E46E  A9 E0:       lda #>_data_606F
	$E470  85 22:       sta $22
+	$E472  A0 00:       ldy #$00
	$E474  B1 1D:       lda ($1D),y
	$E476  E6 1D:       inc $1D
	$E478  D0 02:       bne +		; $E47C
	$E47A  E6 1E:       inc $1E
+	$E47C  0A:          asl a
	$E47D  85 13:       sta $13
	$E47F  0A:          asl a
	$E480  65 13:       adc $13
	$E482  65 21:       adc $21
	$E484  85 21:       sta $21
	$E486  90 02:       bcc +		; $E48A
	$E488  E6 22:       inc $22
+	$E48A  8A:          txa 
	$E48B  48:          pha 
	$E48C  A2 05:        ldx #$05
	$E48E  A0 00:        ldy #$00
-	$E490  A5 12:        lda $12
	$E492  18:           clc 
	$E493  7D 33 E0:     adc _data_6033_indexed,x
	$E496  91 1F:        sta ($1F),y
	$E498  85 12:        sta $12
	$E49A  C8:           iny 
	$E49B  84 13:        sty $13
	$E49D  A0 00:        ldy #$00
	$E49F  B1 1D:        lda ($1D),y
	$E4A1  E6 1D:        inc $1D
	$E4A3  D0 02:        bne +		; $E4A7
	$E4A5  E6 1E:        inc $1E
+	$E4A7  A4 13:        ldy $13
	$E4A9  91 1F:        sta ($1F),y
	$E4AB  C8:           iny 
	$E4AC  A5 14:        lda $14
	$E4AE  91 1F:        sta ($1F),y
	$E4B0  C8:           iny 
	$E4B1  84 13:        sty $13
	$E4B3  A0 00:        ldy #$00
	$E4B5  A5 15:        lda $15
	$E4B7  18:           clc 
	$E4B8  71 21:        adc ($21),y
	$E4BA  E6 21:        inc $21
	$E4BC  D0 02:        bne +		; $E4C0
	$E4BE  E6 22:        inc $22
+	$E4C0  A4 13:        ldy $13
	$E4C2  91 1F:        sta ($1F),y
	$E4C4  C8:           iny 
	$E4C5  CA:           dex 
	$E4C6  10 C8:        bpl -		; $E490
	$E4C8  68:          pla 
	$E4C9  AA:          tax 
	$E4CA  60:          rts 

++++	$E4CB  8A:          txa 
	$E4CC  48:          pha 
	$E4CD  A4 1F:        ldy $1F
	$E4CF  B5 9A:        lda $9A,x
	$E4D1  99 00 02:     sta $0200,y
	$E4D4  99 04 02:     sta $0204,y
	$E4D7  18:           clc 
	$E4D8  69 08:        adc #$08
	$E4DA  99 08 02:     sta $0208,y
	$E4DD  99 0C 02:     sta $020C,y
	$E4E0  A9 F0:        lda #$F0
	$E4E2  99 10 02:     sta $0210,y
	$E4E5  99 14 02:     sta $0214,y
	$E4E8  B5 91:        lda $91,x
	$E4EA  99 03 02:     sta $0203,y
	$E4ED  99 0B 02:     sta $020B,y
	$E4F0  18:           clc 
	$E4F1  69 08:        adc #$08
	$E4F3  99 07 02:     sta $0207,y
	$E4F6  99 0F 02:     sta $020F,y
	$E4F9  B5 9A:        lda $9A,x
	$E4FB  C9 D0:        cmp #$D0
	$E4FD  A9 03:        lda #$03
	$E4FF  90 02:        bcc +		; $E503
	$E501  A9 23:        lda #$23
+	$E503  99 02 02:     sta $0202,y
	$E506  B5 7F:        lda $7F,x
	$E508  D0 3F:        bne +++		; $E549
	$E50A  B9 02 02:     lda $0202,y
	$E50D  99 06 02:     sta $0206,y
	$E510  99 0A 02:     sta $020A,y
	$E513  99 0E 02:     sta $020E,y
	$E516  A9 DA:        lda #$DA
	$E518  99 01 02:     sta $0201,y
	$E51B  A9 DB:        lda #$DB
	$E51D  99 05 02:     sta $0205,y
	$E520  A9 DC:        lda #$DC
	$E522  99 09 02:     sta $0209,y
	$E525  A9 DD:        lda #$DD
	$E527  99 0D 02:     sta $020D,y
	$E52A  A6 1F:        ldx $1F
	$E52C  A5 19:        lda $19
	$E52E  29 20:        and #$20
	$E530  F0 14:        beq ++		; $E546
	$E532  A5 19:        lda $19
	$E534  29 40:        and #$40
	$E536  D0 08:        bne +		; $E540
	$E538  FE 00 02:     inc $0200,x
	$E53B  FE 04 02:     inc $0204,x
	$E53E  D0 06:        bne ++		; $E546
+	$E540  FE 03 02:     inc $0203,x
	$E543  FE 0B 02:     inc $020B,x
++	$E546  68:          pla 
	$E547  AA:          tax 
	$E548  60:          rts 

+++	$E549  B9 02 02:    lda $0202,y
	$E54C  09 40:       ora #$40
	$E54E  99 06 02:    sta $0206,y
	$E551  09 80:       ora #$80
	$E553  99 0E 02:    sta $020E,y
	$E556  29 BF:       and #$BF
	$E558  99 0A 02:    sta $020A,y
	$E55B  A9 DE:       lda #$DE
	$E55D  99 01 02:    sta $0201,y
	$E560  99 05 02:    sta $0205,y
	$E563  99 09 02:    sta $0209,y
	$E566  99 0D 02:    sta $020D,y
	$E569  DE 5A 04:    dec $045A,x
	$E56C  10 0C:       bpl +		; $E57A
	$E56E  A9 FF:       lda #$FF
	$E570  95 88:       sta $88,x
	$E572  A9 F0:       lda #$F0
	$E574  95 9A:       sta $9A,x
	$E576  A9 04:       lda #$04
	$E578  85 F1:       sta $F1
+	$E57A  68:          pla 
	$E57B  AA:          tax 
	$E57C  60:          rts 
;------------------------------------------
_func_657D
	$E57D  A6 BB:       ldx $BB
	$E57F  30 39:       bmi ++		; $E5BA -> rts
	$E581  BD BB E5:    lda _DataPointerTableLo_65BB,x
	$E584  85 1D:       sta $1D
	$E586  BD C0 E5:    lda _DataPointerTableHi_65BB,x
	$E589  85 1E:       sta $1E
	$E58B  A0 00:       ldy #$00
	$E58D  A2 00:       ldx #$00
-	$E58F  B1 1D:       lda ($1D),y
	$E591  9D E0 02:    sta $02E0,x
	$E594  C8:          iny 
	$E595  E8:          inx 
	$E596  C9 F0:       cmp #$F0
	$E598  D0 03:       bne +		; $E59D
	$E59A  E8:          inx 
	$E59B  E8:          inx 
	$E59C  E8:          inx 
+	$E59D  E0 10:       cpx #$10
	$E59F  D0 EE:       bne -		; $E58F
	$E5A1  A0 0F:       ldy #$0F
-	$E5A3  B9 E0 02:    lda $02E0,y
	$E5A6  18:          clc 
	$E5A7  65 BC:       adc $BC
	$E5A9  99 E0 02:    sta $02E0,y
	$E5AC  88:          dey 
	$E5AD  88:          dey 
	$E5AE  88:          dey 
	$E5AF  88:          dey 
	$E5B0  10 F1:       bpl -		; $E5A3
	$E5B2  A5 19:       lda $19
	$E5B4  29 03:       and #$03
	$E5B6  D0 02:       bne ++		; $E5BA -> rts
	$E5B8  C6 BB:       dec $BB
++	$E5BA  60:          rts 
;------------------------------------------
_DataPointerTableLo_65BB
	$E5BB  F3:          .byte (DataTableEntry_65F3).lo
	$E5BC  E3:          .byte (DataTableEntry_65E3).lo
	$E5BD  D6:          .byte (DataTableEntry_65D6).lo
	$E5BE  CC:          .byte (DataTableEntry_65CC).lo
	$E5BF  C5:          .byte (DataTableEntry_65C5).lo
_DataPointerTableHi_65BB
	$E5C0  E5:          .byte (DataTableEntry_65F3).hi
	$E5C1  E5:          .byte (DataTableEntry_65E3).hi
	$E5C2  E5:          .byte (DataTableEntry_65D6).hi
	$E5C3  E5:          .byte (DataTableEntry_65CC).hi
	$E5C4  E5:          .byte (DataTableEntry_65C5).hi
DataTableEntry_65C5
	$E5C5               .byte $D0,$AE,$03,$04,$F0,$F0,$F0
DataTableEntry_65CC
	$E5CC               .byte $C8,$AF,$03,$04,$D0,$B0,$03,$04,$F0,$F0
DataTableEntry_65D6
	$E5D6               .byte $C8,$B1,$03,$FC,$C8,$B2,$03,$04,$D0,$B3,$03,$04,$F0
DataTableEntry_65E3
	$E5E3               .byte $C8,$B4,$03,$00,$C8,$B4,$43,$08,$D0,$B5,$03,$00,$D0,$B5,$43,$08
DataTableEntry_65F3
	$E5F3               .byte $F0,$F0,$F0,$F0
_data_65F7_indexed
	$E5F7               .byte $04,$04,$05,$06,$03,$03,$03,$06,$0A,$0A,$0A,$0A
_data_6603_indexed
	$E603               .byte $28,$32,$46,$78,$00,$00,$00,$64,$00,$00,$00,$00
_data_660F_indexed
	$E60F               .byte $0A,$1E,$32,$70,$00,$00,$00,$70,$00,$00,$00,$00
_data_661B_indexed
	$E61B               .byte $14,$3C,$64,$A0,$00,$00,$00,$A0,$00,$00,$00,$00
_data_6627_indexed
	$E627               .byte $70,$B0,$E0,$40,$80,$80,$80,$40,$00,$00,$00,$00
_data_6633_indexed
	$E633               .byte $00,$00,$00,$01,$00,$00,$00,$01,$00,$00,$00,$00
_data_663F_indexed
	$E63F               .byte $90,$50,$20,$C0,$80,$80,$80,$C0,$00,$00,$00,$00
_data_664B_indexed
	$E64B               .byte $FF,$FF,$FF,$FE,$FF,$FF,$FF,$FE,$00,$00,$00,$00
_data_6657_indexed
	$E657               .byte $50,$90,$C0,$40,$40,$40,$40,$40,$00,$00,$00,$00
_data_6663_indexed
	$E663               .byte $00,$00,$00,$01,$00,$00,$00,$01,$02,$02,$02,$02
_data_666F_indexed
	$E66F               .byte $B0,$70,$40,$C0,$C0,$C0,$C0,$C0,$C0,$C0,$C0,$C0
_data_667B_indexed
	$E67B               .byte $FF,$FF,$FF,$FE,$FF,$FF,$FF,$FE,$FE,$01,$FE,$FE
_func_6687
	$E687  20 1B EE:    jsr _func_6E1B
	$E68A  A2 07:       ldx #$07
-	$E68C  B5 88:       lda $88,x
	$E68E  10 0A:       bpl +		; $E69A
	$E690  C9 FF:       cmp #$FF
	$E692  F0 44:       beq +++		; $E6D8
	$E694  20 B0 EC:    jsr _func_6CB0
	$E697  4C D8 E6:    jmp +++		; $E6D8

+	$E69A  E0 02:       cpx #$02
	$E69C  90 10:       bcc +		; $E6AE
	$E69E  C9 01:       cmp #$01
	$E6A0  D0 0C:       bne +		; $E6AE
	$E6A2  B5 7F:       lda $7F,x
	$E6A4  C9 02:       cmp #$02
	$E6A6  B0 06:       bcs +		; $E6AE
	$E6A8  A5 F1:       lda $F1
	$E6AA  09 20:       ora #$20
	$E6AC  85 F1:       sta $F1
+	$E6AE  DE 3F 04:    dec $043F,x
	$E6B1  D0 1C:       bne ++		; $E6CF
	$E6B3  A9 03:       lda #$03
	$E6B5  9D 3F 04:    sta $043F,x
	$E6B8  E0 02:       cpx #$02
	$E6BA  B0 08:       bcs +		; $E6C4
	$E6BC  D6 BF:       dec $BF,x
	$E6BE  D0 04:       bne +		; $E6C4
	$E6C0  A9 00:       lda #$00
	$E6C2  95 BD:       sta $BD,x
+	$E6C4  20 0E EA:    jsr _func_6A0E
	$E6C7  86 3E:       stx $3E
	$E6C9  20 BA EB:    jsr _func_6BBA
	$E6CC  20 8C E7:    jsr _func_678C
++	$E6CF  20 4E EA:    jsr _func_6A4E
	$E6D2  20 1E ED:    jsr _func_6D1E
	$E6D5  20 79 E9:    jsr _func_6979
+++	$E6D8  20 9A E3:    jsr _func_639A
	$E6DB  CA:          dex 
	$E6DC  10 AE:       bpl -		; $E68C
	$E6DE  60:          rts 
;------------------------------------------
_func_66DF
	$E6DF  E0 02:       cpx #$02
	$E6E1  B0 18:       bcs ++		; $E6FB
	$E6E3  A5 19:       lda $19
	$E6E5  29 0F:       and #$0F
	$E6E7  D0 05:       bne +		; $E6EE
	$E6E9  20 A9 F1:    jsr _func_71A9
	$E6EC  95 31:       sta $31,x
+	$E6EE  A5 3A:       lda $3A
	$E6F0  D0 09:       bne ++		; $E6FB
	$E6F2  20 60 E7:    jsr _func_6760
	$E6F5  BD 1C 06:    lda $061C,x
	$E6F8  95 31:       sta $31,x
-	$E6FA  60:          rts 

++	$E6FB  B5 9A:       lda $9A,x
	$E6FD  C9 A0:       cmp #$A0
	$E6FF  90 07:       bcc +		; $E708
	$E701  B5 31:       lda $31,x
	$E703  09 40:       ora #$40
	$E705  95 31:       sta $31,x
	$E707  60:          rts 

+	$E708  DE 5A 04:    dec $045A,x
	$E70B  D0 ED:       bne -		; $E6FA -> rts
	$E70D  20 A9 F1:    jsr _func_71A9
	$E710  BC 51 04:    ldy $0451,x
	$E713  39 58 E7:    and _data_6758_indexed,y
	$E716  79 5B E7:    adc _data_675B_indexed,y
	$E719  9D 5A 04:    sta $045A,x
	$E71C  86 12:       stx $12
	$E71E  A5 19:       lda $19
	$E720  2A:          rol a
	$E721  2A:          rol a
	$E722  45 12:       eor $12
	$E724  29 01:       and #$01
	$E726  A8:          tay 
	$E727  B9 88 00:    lda $0088,y
	$E72A  30 13:       bmi +		; $E73F
	$E72C  B9 BD 00:    lda $00BD,y
	$E72F  D0 0E:       bne +		; $E73F
	$E731  A9 00:       lda #$00
	$E733  95 31:       sta $31,x
	$E735  B9 9A 00:    lda $009A,y
	$E738  38:          sec 
	$E739  E9 04:       sbc #$04
	$E73B  D5 9A:       cmp $9A,x
	$E73D  B0 04:       bcs ++		; $E743
+	$E73F  A9 40:       lda #$40
	$E741  95 31:       sta $31,x
++	$E743  B5 91:       lda $91,x
	$E745  D9 91 00:    cmp $0091,y
	$E748  B0 07:       bcs +		; $E751
	$E74A  B5 31:       lda $31,x
	$E74C  09 01:       ora #$01
	$E74E  95 31:       sta $31,x
	$E750  60:          rts 

+	$E751  B5 31:       lda $31,x
	$E753  09 02:       ora #$02
	$E755  95 31:       sta $31,x
	$E757  60:          rts 
;------------------------------------------
_data_6758_indexed
	$E758               .byte $1F,$0F,$07
_data_675B_indexed
	$E75B               .byte $20,$10,$08
_func_675E
	$E75E  A2 00:       ldx #$00
_func_6760
	$E760  A9 01:       lda #$01
	$E762  8D 16 40:    sta $4016
	$E765  A9 00:       lda #$00
	$E767  8D 16 40:    sta $4016
	$E76A  A0 07:       ldy #$07
-	$E76C  BD 16 40:    lda $4016,x
	$E76F  85 12:       sta $12
	$E771  4A:          lsr a
	$E772  05 12:       ora $12
	$E774  4A:          lsr a
	$E775  3E 1C 06:    rol $061C,x
	$E778  88:          dey 
	$E779  10 F1:       bpl -		; $E76C
	$E77B  BC 1E 06:    ldy $061E,x
	$E77E  BD 1C 06:    lda $061C,x
	$E781  9D 1E 06:    sta $061E,x
	$E784  98:          tya 
	$E785  5D 1C 06:    eor $061C,x
	$E788  3D 1C 06:    and $061C,x
	$E78B  60:          rts 
;------------------------------------------
_func_678C
	$E78C  B5 88:       lda $88,x
	$E78E  D0 09:       bne +		; $E799
-	$E790  A9 00:       lda #$00
	$E792  9D 24 04:    sta $0424,x
	$E795  9D 2D 04:    sta $042D,x
	$E798  60:          rts 

+	$E799  C9 02:       cmp #$02
	$E79B  F0 41:       beq +		; $E7DE
	$E79D  E0 02:       cpx #$02
	$E79F  90 3D:       bcc +		; $E7DE
	$E7A1  B5 7F:       lda $7F,x
	$E7A3  C9 02:       cmp #$02
	$E7A5  B0 E9:       bcs -		; $E790
_func_67A7
	$E7A7  BD 24 04:    lda $0424,x
	$E7AA  85 12:       sta $12
	$E7AC  BD 2D 04:    lda $042D,x
	$E7AF  85 13:       sta $13
	$E7B1  20 9C F1:    jsr _func_719C
	$E7B4  BD 63 04:    lda $0463,x
	$E7B7  18:          clc 
	$E7B8  65 12:       adc $12
	$E7BA  9D 63 04:    sta $0463,x
	$E7BD  85 12:       sta $12
	$E7BF  BD 6C 04:    lda $046C,x
	$E7C2  65 13:       adc $13
	$E7C4  9D 6C 04:    sta $046C,x
	$E7C7  85 13:       sta $13
	$E7C9  20 9C F1:    jsr _func_719C
	$E7CC  BD 24 04:    lda $0424,x
	$E7CF  38:          sec 
	$E7D0  E5 12:       sbc $12
	$E7D2  9D 24 04:    sta $0424,x
	$E7D5  BD 2D 04:    lda $042D,x
	$E7D8  E5 13:       sbc $13
	$E7DA  9D 2D 04:    sta $042D,x
	$E7DD  60:          rts 

+	$E7DE  B5 7F:       lda $7F,x
	$E7E0  C9 06:       cmp #$06
	$E7E2  90 01:       bcc +		; $E7E5
	$E7E4  60:          rts 

+	$E7E5  B5 7F:       lda $7F,x
	$E7E7  C9 04:       cmp #$04
	$E7E9  D0 1C:       bne +++		; $E807
	$E7EB  B5 31:       lda $31,x
	$E7ED  29 02:       and #$02
	$E7EF  F0 07:       beq +		; $E7F8
	$E7F1  BD 48 04:    lda $0448,x
	$E7F4  F0 11:       beq +++		; $E807
	$E7F6  D0 0B:       bne ++		; $E803
+	$E7F8  B5 31:       lda $31,x
	$E7FA  29 01:       and #$01
	$E7FC  F0 09:       beq +++		; $E807
	$E7FE  BD 48 04:    lda $0448,x
	$E801  D0 04:       bne +++		; $E807
++	$E803  A9 05:       lda #$05
	$E805  95 7F:       sta $7F,x
+++	$E807  B5 7F:       lda $7F,x
	$E809  C9 02:       cmp #$02
	$E80B  D0 1B:       bne ++++		; $E828
	$E80D  B5 31:       lda $31,x
	$E80F  29 02:       and #$02
	$E811  F0 04:       beq +		; $E817
	$E813  A9 00:       lda #$00
	$E815  F0 08:       beq ++		; $E81F

+	$E817  B5 31:       lda $31,x
	$E819  29 01:       and #$01
	$E81B  F0 07:       beq +++		; $E824
	$E81D  A9 01:       lda #$01
++	$E81F  DD 48 04:    cmp $0448,x
	$E822  F0 04:       beq ++++		; $E828
+++	$E824  A9 04:       lda #$04
	$E826  95 7F:       sta $7F,x
++++	$E828  B5 7F:       lda $7F,x
	$E82A  C9 04:       cmp #$04
	$E82C  90 1C:       bcc +++		; $E84A
	$E82E  B5 31:       lda $31,x
	$E830  29 02:       and #$02
	$E832  F0 07:       beq +		; $E83B
	$E834  BD 48 04:    lda $0448,x
	$E837  D0 11:       bne +++		; $E84A
	$E839  F0 0B:       beq ++		; $E846
+	$E83B  B5 31:       lda $31,x
	$E83D  29 01:       and #$01
	$E83F  F0 09:       beq +++		; $E84A
	$E841  BD 48 04:    lda $0448,x
	$E844  F0 04:       beq +++		; $E84A
++	$E846  A9 02:       lda #$02
	$E848  95 7F:       sta $7F,x
+++	$E84A  B5 7F:       lda $7F,x
	$E84C  C9 03:       cmp #$03
	$E84E  D0 0A:       bne +		; $E85A
	$E850  B5 31:       lda $31,x
	$E852  29 03:       and #$03
	$E854  F0 04:       beq +		; $E85A
	$E856  A9 02:       lda #$02
	$E858  95 7F:       sta $7F,x
+	$E85A  B5 7F:       lda $7F,x
	$E85C  C9 04:       cmp #$04
	$E85E  B0 15:       bcs +++		; $E875
	$E860  B5 31:       lda $31,x
	$E862  29 02:       and #$02
	$E864  F0 04:       beq +		; $E86A
	$E866  A9 00:       lda #$00
	$E868  F0 08:       beq ++		; $E872

+	$E86A  B5 31:       lda $31,x
	$E86C  29 01:       and #$01
	$E86E  F0 05:       beq +++		; $E875
	$E870  A9 01:       lda #$01
++	$E872  9D 48 04:    sta $0448,x
+++	$E875  B5 7F:       lda $7F,x
	$E877  C9 04:       cmp #$04
	$E879  90 33:       bcc ++		; $E8AE
	$E87B  BD 36 04:    lda $0436,x
	$E87E  C9 01:       cmp #$01
	$E880  D0 2C:       bne ++		; $E8AE
	$E882  BC 51 04:    ldy $0451,x
	$E885  BD 48 04:    lda $0448,x
	$E888  F0 12:       beq +		; $E89C
	$E88A  BD 24 04:    lda $0424,x
	$E88D  38:          sec 
	$E88E  F9 1B E6:    sbc _data_661B_indexed,y
	$E891  9D 24 04:    sta $0424,x
	$E894  BD 2D 04:    lda $042D,x
	$E897  E9 00:       sbc #$00
	$E899  4C F7 E8:    jmp +++		; $E8F7

+	$E89C  BD 24 04:    lda $0424,x
	$E89F  18:          clc 
	$E8A0  79 1B E6:    adc _data_661B_indexed,y
	$E8A3  9D 24 04:    sta $0424,x
	$E8A6  BD 2D 04:    lda $042D,x
	$E8A9  69 00:       adc #$00
	$E8AB  4C F7 E8:    jmp +++		; $E8F7

++	$E8AE  B5 7F:       lda $7F,x
	$E8B0  F0 0B:       beq +		; $E8BD
	$E8B2  C9 02:       cmp #$02
	$E8B4  F0 47:       beq ++++		; $E8FD
	$E8B6  C9 03:       cmp #$03
	$E8B8  F0 03:       beq +		; $E8BD
	$E8BA  4C 47 E9:    jmp _loc_6947

+	$E8BD  BD 36 04:    lda $0436,x
	$E8C0  C9 01:       cmp #$01
	$E8C2  F0 03:       beq +		; $E8C7
	$E8C4  4C 47 E9:    jmp _loc_6947

+	$E8C7  BC 51 04:    ldy $0451,x
	$E8CA  B5 31:       lda $31,x
	$E8CC  29 02:       and #$02
	$E8CE  F0 12:       beq +		; $E8E2
	$E8D0  BD 24 04:    lda $0424,x
	$E8D3  38:          sec 
	$E8D4  F9 0F E6:    sbc _data_660F_indexed,y
	$E8D7  9D 24 04:    sta $0424,x
	$E8DA  BD 2D 04:    lda $042D,x
	$E8DD  E9 00:       sbc #$00
	$E8DF  4C F7 E8:    jmp +++		; $E8F7

+	$E8E2  B5 31:       lda $31,x
	$E8E4  29 01:       and #$01
	$E8E6  F0 5F:       beq _loc_6947
	$E8E8  BD 24 04:    lda $0424,x
	$E8EB  18:          clc 
	$E8EC  79 0F E6:    adc _data_660F_indexed,y
	$E8EF  9D 24 04:    sta $0424,x
	$E8F2  BD 2D 04:    lda $042D,x
	$E8F5  69 00:       adc #$00
+++	$E8F7  9D 2D 04:    sta $042D,x
	$E8FA  4C 47 E9:    jmp _loc_6947

++++	$E8FD  BD 36 04:    lda $0436,x
	$E900  C9 01:       cmp #$01
	$E902  D0 43:       bne _loc_6947
	$E904  BC 51 04:    ldy $0451,x
	$E907  B5 31:       lda $31,x
	$E909  29 02:       and #$02
	$E90B  F0 12:       beq +		; $E91F
	$E90D  BD 24 04:    lda $0424,x
	$E910  38:          sec 
	$E911  F9 1B E6:    sbc _data_661B_indexed,y
	$E914  9D 24 04:    sta $0424,x
	$E917  BD 2D 04:    lda $042D,x
	$E91A  E9 00:       sbc #$00
	$E91C  4C 34 E9:    jmp ++		; $E934

+	$E91F  B5 31:       lda $31,x
	$E921  29 01:       and #$01
	$E923  F0 22:       beq _loc_6947
	$E925  BD 24 04:    lda $0424,x
	$E928  18:          clc 
	$E929  79 1B E6:    adc _data_661B_indexed,y
	$E92C  9D 24 04:    sta $0424,x
	$E92F  BD 2D 04:    lda $042D,x
	$E932  69 00:       adc #$00
++	$E934  9D 2D 04:    sta $042D,x
	$E937  B5 31:       lda $31,x
	$E939  29 03:       and #$03
	$E93B  F0 0A:       beq _loc_6947
	$E93D  E0 02:       cpx #$02
	$E93F  B0 06:       bcs _loc_6947
	$E941  A5 F0:       lda $F0
	$E943  09 08:       ora #$08
	$E945  85 F0:       sta $F0
_loc_6947
	$E947  B5 7F:       lda $7F,x
	$E949  C9 04:       cmp #$04
	$E94B  90 2B:       bcc +++		; $E978 -> rts
	$E94D  BD 48 04:    lda $0448,x
	$E950  D0 07:       bne +		; $E959
	$E952  BD 2D 04:    lda $042D,x
	$E955  30 21:       bmi +++		; $E978 -> rts
	$E957  10 05:       bpl ++		; $E95E
+	$E959  BD 2D 04:    lda $042D,x
	$E95C  10 1A:       bpl +++		; $E978 -> rts
++	$E95E  B5 7F:       lda $7F,x
	$E960  C9 05:       cmp #$05
	$E962  D0 08:       bne +		; $E96C
	$E964  BD 48 04:    lda $0448,x
	$E967  49 01:       eor #$01
	$E969  9D 48 04:    sta $0448,x
+	$E96C  A9 03:       lda #$03
	$E96E  95 7F:       sta $7F,x
	$E970  A9 00:       lda #$00
	$E972  9D 24 04:    sta $0424,x
	$E975  9D 2D 04:    sta $042D,x
+++	$E978  60:          rts 
;------------------------------------------
_func_6979
	$E979  A5 CB:       lda $CB
	$E97B  D0 2F:       bne ++		; $E9AC
	$E97D  B5 BD:       lda $BD,x
	$E97F  F0 0F:       beq +		; $E990
	$E981  AD 88 04:    lda $0488
	$E984  F0 0A:       beq +		; $E990
	$E986  38:          sec 
	$E987  F5 91:       sbc $91,x
	$E989  20 84 F0:    jsr _func_7084
	$E98C  C9 05:       cmp #$05
	$E98E  90 1C:       bcc ++		; $E9AC
+	$E990  E0 02:       cpx #$02
	$E992  90 06:       bcc +		; $E99A
	$E994  B5 88:       lda $88,x
	$E996  C9 02:       cmp #$02
	$E998  D0 4E:       bne +++		; $E9E8 -> rts
+	$E99A  B5 7F:       lda $7F,x
	$E99C  C9 02:       cmp #$02
	$E99E  90 48:       bcc +++		; $E9E8 -> rts
	$E9A0  C9 06:       cmp #$06
	$E9A2  B0 44:       bcs +++		; $E9E8 -> rts
	$E9A4  A9 01:       lda #$01
	$E9A6  95 7F:       sta $7F,x
	$E9A8  9D 5A 04:    sta $045A,x
	$E9AB  60:          rts 

++	$E9AC  A9 00:       lda #$00
	$E9AE  9D 12 04:    sta $0412,x
	$E9B1  9D 1B 04:    sta $041B,x
	$E9B4  9D 09 04:    sta $0409,x
	$E9B7  85 CB:       sta $CB
	$E9B9  E0 02:       cpx #$02
	$E9BB  90 36:       bcc _loc_69F3
	$E9BD  B5 88:       lda $88,x
	$E9BF  C9 02:       cmp #$02
	$E9C1  F0 26:       beq ++++		; $E9E9
	$E9C3  C9 01:       cmp #$01
	$E9C5  D0 21:       bne +++		; $E9E8 -> rts
	$E9C7  B5 7F:       lda $7F,x
	$E9C9  C9 02:       cmp #$02
	$E9CB  B0 1B:       bcs +++		; $E9E8 -> rts
	$E9CD  A9 02:       lda #$02
	$E9CF  95 7F:       sta $7F,x
	$E9D1  A5 C6:       lda $C6
	$E9D3  9D 3F 04:    sta $043F,x
	$E9D6  A9 00:       lda #$00
	$E9D8  9D 24 04:    sta $0424,x
	$E9DB  9D 2D 04:    sta $042D,x
	$E9DE  9D 63 04:    sta $0463,x
	$E9E1  9D 6C 04:    sta $046C,x
	$E9E4  A9 40:       lda #$40
	$E9E6  85 F1:       sta $F1
+++	$E9E8  60:          rts 

++++	$E9E9  A9 00:       lda #$00
	$E9EB  95 7F:       sta $7F,x
	$E9ED  A9 01:       lda #$01
	$E9EF  9D 5A 04:    sta $045A,x
	$E9F2  60:          rts 
;------------------------------------------
_loc_69F3
	$E9F3  B5 7F:       lda $7F,x
	$E9F5  C9 01:       cmp #$01
	$E9F7  D0 14:       bne +++		; $EA0D -> rts
	$E9F9  C9 06:       cmp #$06
	$E9FB  B0 10:       bcs +++		; $EA0D -> rts
	$E9FD  BD 24 04:    lda $0424,x
	$EA00  1D 2D 04:    ora $042D,x
	$EA03  D0 04:       bne +		; $EA09
	$EA05  A9 03:       lda #$03
	$EA07  D0 02:       bne ++		; $EA0B

+	$EA09  A9 02:       lda #$02
++	$EA0B  95 7F:       sta $7F,x
+++	$EA0D  60:          rts 
;------------------------------------------
_func_6A0E
	$EA0E  E0 02:       cpx #$02
	$EA10  B0 10:       bcs +		; $EA22
	$EA12  B5 BD:       lda $BD,x
	$EA14  D0 24:       bne +++		; $EA3A
	$EA16  B5 7F:       lda $7F,x
	$EA18  C9 01:       cmp #$01
	$EA1A  F0 18:       beq ++		; $EA34
	$EA1C  C9 03:       cmp #$03
	$EA1E  D0 1A:       bne +++		; $EA3A
	$EA20  F0 12:       beq ++		; $EA34
+	$EA22  B5 7F:       lda $7F,x
	$EA24  C9 01:       cmp #$01
	$EA26  F0 0C:       beq ++		; $EA34
	$EA28  C9 03:       cmp #$03
	$EA2A  90 0E:       bcc +++		; $EA3A
	$EA2C  A5 19:       lda $19
	$EA2E  29 03:       and #$03
	$EA30  D0 0B:       bne ++++		; $EA3D
	$EA32  F0 06:       beq +++		; $EA3A
++	$EA34  A5 19:       lda $19
	$EA36  29 07:       and #$07
	$EA38  D0 03:       bne ++++		; $EA3D
+++	$EA3A  FE 36 04:    inc $0436,x
++++	$EA3D  BD 36 04:    lda $0436,x
	$EA40  29 03:       and #$03
	$EA42  9D 36 04:    sta $0436,x
	$EA45  D0 06:       bne +		; $EA4D -> rts
	$EA47  B5 7F:       lda $7F,x
	$EA49  D0 02:       bne +		; $EA4D -> rts
	$EA4B  F6 7F:       inc $7F,x
+	$EA4D  60:          rts 
;------------------------------------------
_func_6A4E
	$EA4E  BD 75 04:    lda $0475,x
	$EA51  F0 03:       beq +		; $EA56
	$EA53  DE 75 04:    dec $0475,x
+	$EA56  E0 02:       cpx #$02
	$EA58  B0 28:       bcs ++		; $EA82
	$EA5A  B5 C1:       lda $C1,x
	$EA5C  F0 24:       beq ++		; $EA82
	$EA5E  A5 19:       lda $19
	$EA60  4A:          lsr a
	$EA61  90 1E:       bcc +		; $EA81 -> rts
	$EA63  FE 36 04:    inc $0436,x
	$EA66  BD 36 04:    lda $0436,x
	$EA69  29 03:       and #$03
	$EA6B  9D 36 04:    sta $0436,x
	$EA6E  A9 01:       lda #$01
	$EA70  95 7F:       sta $7F,x
	$EA72  DE 5A 04:    dec $045A,x
	$EA75  D0 0A:       bne +		; $EA81 -> rts
	$EA77  A9 00:       lda #$00
	$EA79  95 C1:       sta $C1,x
	$EA7B  95 7F:       sta $7F,x
	$EA7D  A9 20:       lda #$20
	$EA7F  85 F0:       sta $F0
+	$EA81  60:          rts 

++	$EA82  BD 12 04:    lda $0412,x
	$EA85  18:          clc 
	$EA86  BC 51 04:    ldy $0451,x
	$EA89  79 F7 E5:    adc _data_65F7_indexed,y
	$EA8C  9D 12 04:    sta $0412,x
	$EA8F  90 03:       bcc +		; $EA94
	$EA91  FE 1B 04:    inc $041B,x
+	$EA94  BD 1B 04:    lda $041B,x
	$EA97  30 1E:       bmi ++		; $EAB7
	$EA99  D9 63 E6:    cmp _data_6663_indexed,y
	$EA9C  90 34:       bcc +++		; $EAD2
	$EA9E  D0 08:       bne +		; $EAA8
	$EAA0  BD 12 04:    lda $0412,x
	$EAA3  D9 57 E6:    cmp _data_6657_indexed,y
	$EAA6  90 2A:       bcc +++		; $EAD2
+	$EAA8  B9 57 E6:    lda _data_6657_indexed,y
	$EAAB  9D 12 04:    sta $0412,x
	$EAAE  B9 63 E6:    lda _data_6663_indexed,y
	$EAB1  9D 1B 04:    sta $041B,x
	$EAB4  4C D2 EA:    jmp +++		; $EAD2

++	$EAB7  D9 7B E6:    cmp _data_667B_indexed,y
	$EABA  90 0A:       bcc +		; $EAC6
	$EABC  D0 14:       bne +++		; $EAD2
	$EABE  BD 12 04:    lda $0412,x
	$EAC1  D9 6F E6:    cmp _data_666F_indexed,y
	$EAC4  B0 0C:       bcs +++		; $EAD2
+	$EAC6  B9 6F E6:    lda _data_666F_indexed,y
	$EAC9  9D 12 04:    sta $0412,x
	$EACC  B9 7B E6:    lda _data_667B_indexed,y
	$EACF  9D 1B 04:    sta $041B,x
+++	$EAD2  20 96 EB:    jsr _func_6B96
	$EAD5  C9 F8:       cmp #$F8
	$EAD7  B0 2A:       bcs ++		; $EB03
	$EAD9  C9 E8:       cmp #$E8
	$EADB  90 26:       bcc ++		; $EB03
	$EADD  A9 FF:       lda #$FF
	$EADF  95 88:       sta $88,x
	$EAE1  A9 04:       lda #$04
	$EAE3  85 BB:       sta $BB
	$EAE5  B5 91:       lda $91,x
	$EAE7  85 BC:       sta $BC
	$EAE9  E0 02:       cpx #$02
	$EAEB  90 0E:       bcc +		; $EAFB
	$EAED  A9 80:       lda #$80
	$EAEF  95 88:       sta $88,x
	$EAF1  A9 00:       lda #$00
	$EAF3  95 7F:       sta $7F,x
	$EAF5  A9 01:       lda #$01
	$EAF7  85 F3:       sta $F3
	$EAF9  D0 08:       bne ++		; $EB03

+	$EAFB  A5 C8:       lda $C8
	$EAFD  D0 04:       bne ++		; $EB03
	$EAFF  A9 40:       lda #$40
	$EB01  85 F0:       sta $F0
++	$EB03  BD 2D 04:    lda $042D,x
	$EB06  30 1E:       bmi ++		; $EB26
	$EB08  D9 33 E6:    cmp _data_6633_indexed,y
	$EB0B  90 34:       bcc +++		; $EB41
	$EB0D  D0 08:       bne +		; $EB17
	$EB0F  BD 24 04:    lda $0424,x
	$EB12  D9 27 E6:    cmp _data_6627_indexed,y
	$EB15  90 2A:       bcc +++		; $EB41
+	$EB17  B9 27 E6:    lda _data_6627_indexed,y
	$EB1A  9D 24 04:    sta $0424,x
	$EB1D  B9 33 E6:    lda _data_6633_indexed,y
	$EB20  9D 2D 04:    sta $042D,x
	$EB23  4C 41 EB:    jmp +++		; $EB41

++	$EB26  D9 4B E6:    cmp _data_664B_indexed,y
	$EB29  90 0A:       bcc +		; $EB35
	$EB2B  D0 14:       bne +++		; $EB41
	$EB2D  BD 24 04:    lda $0424,x
	$EB30  D9 3F E6:    cmp _data_663F_indexed,y
	$EB33  B0 0C:       bcs +++		; $EB41
+	$EB35  B9 3F E6:    lda _data_663F_indexed,y
	$EB38  9D 24 04:    sta $0424,x
	$EB3B  B9 4B E6:    lda _data_664B_indexed,y
	$EB3E  9D 2D 04:    sta $042D,x
+++	$EB41  20 84 EB:    jsr _func_6B84
	$EB44  A5 16:       lda $16
	$EB46  F0 10:       beq ++		; $EB58
	$EB48  B5 91:       lda $91,x
	$EB4A  C9 10:       cmp #$10
	$EB4C  B0 02:       bcs +		; $EB50
	$EB4E  A9 10:       lda #$10
+	$EB50  C9 E0:       cmp #$E0
	$EB52  90 02:       bcc +		; $EB56
	$EB54  A9 E0:       lda #$E0
+	$EB56  95 91:       sta $91,x
++	$EB58  A5 C8:       lda $C8
	$EB5A  F0 27:       beq ++		; $EB83 -> rts
	$EB5C  B5 88:       lda $88,x
	$EB5E  D0 23:       bne ++		; $EB83 -> rts
	$EB60  B5 9A:       lda $9A,x
	$EB62  C9 C8:       cmp #$C8
	$EB64  90 1D:       bcc ++		; $EB83 -> rts
	$EB66  A9 C7:       lda #$C7
	$EB68  95 9A:       sta $9A,x
	$EB6A  BD 51 04:    lda $0451,x
	$EB6D  C9 0B:       cmp #$0B
	$EB6F  D0 09:       bne +		; $EB7A
	$EB71  DE 51 04:    dec $0451,x
	$EB74  20 FD F0:    jsr _func_70FD
	$EB77  4C 82 F1:    jmp _func_7182

+	$EB7A  A9 02:       lda #$02
	$EB7C  95 88:       sta $88,x
	$EB7E  A9 03:       lda #$03
	$EB80  9D 51 04:    sta $0451,x
++	$EB83  60:          rts 
;------------------------------------------
_func_6B84
	$EB84  BD 00 04:    lda $0400,x
	$EB87  18:          clc 
	$EB88  7D 24 04:    adc $0424,x
	$EB8B  9D 00 04:    sta $0400,x
	$EB8E  B5 91:       lda $91,x
	$EB90  7D 2D 04:    adc $042D,x
	$EB93  95 91:       sta $91,x
	$EB95  60:          rts 
;------------------------------------------
_func_6B96
	$EB96  BD 09 04:    lda $0409,x
	$EB99  18:          clc 
	$EB9A  7D 12 04:    adc $0412,x
	$EB9D  9D 09 04:    sta $0409,x
	$EBA0  B5 9A:       lda $9A,x
	$EBA2  7D 1B 04:    adc $041B,x
	$EBA5  95 9A:       sta $9A,x
	$EBA7  60:          rts 
;------------------------------------------
_func_6BA8
	$EBA8  20 AA F0:    jsr _func_70AA
	$EBAB  20 84 EB:    jsr _func_6B84
	$EBAE  4C AA F0:    jmp _func_70AA
;------------------------------------------
_func_6BB1
	$EBB1  20 AA F0:    jsr _func_70AA
	$EBB4  20 96 EB:    jsr _func_6B96
	$EBB7  4C AA F0:    jmp _func_70AA
;------------------------------------------
_func_6BBA
	$EBBA  E0 02:       cpx #$02
	$EBBC  B0 1B:       bcs ++		; $EBD9
	$EBBE  B5 88:       lda $88,x
	$EBC0  D0 0A:       bne +		; $EBCC
	$EBC2  BD 36 04:    lda $0436,x
	$EBC5  D0 05:       bne +		; $EBCC
	$EBC7  A9 00:       lda #$00
	$EBC9  95 7F:       sta $7F,x
	$EBCB  60:          rts 

+	$EBCC  B5 7F:       lda $7F,x
	$EBCE  C9 06:       cmp #$06
	$EBD0  90 5C:       bcc ++++		; $EC2E
	$EBD2  A9 01:       lda #$01
	$EBD4  95 7F:       sta $7F,x
	$EBD6  D6 88:       dec $88,x
	$EBD8  60:          rts 

++	$EBD9  B5 88:       lda $88,x
	$EBDB  C9 02:       cmp #$02
	$EBDD  F0 4F:       beq ++++		; $EC2E
	$EBDF  BD 36 04:    lda $0436,x
	$EBE2  D0 0F:       bne ++		; $EBF3 -> rts
	$EBE4  B5 88:       lda $88,x
	$EBE6  D0 05:       bne +		; $EBED
	$EBE8  A9 00:       lda #$00
	$EBEA  95 7F:       sta $7F,x
	$EBEC  60:          rts 

+	$EBED  B5 7F:       lda $7F,x
	$EBEF  D0 03:       bne +++		; $EBF4
	$EBF1  F6 7F:       inc $7F,x
++ -	$EBF3  60:          rts 

+++	$EBF4  C9 02:       cmp #$02
	$EBF6  90 FB:       bcc -		; $EBF3 -> rts
	$EBF8  DE 5A 04:    dec $045A,x
	$EBFB  D0 30:       bne ++		; $EC2D -> rts
	$EBFD  A5 C7:       lda $C7
	$EBFF  9D 5A 04:    sta $045A,x
	$EC02  F6 7F:       inc $7F,x
	$EC04  B5 7F:       lda $7F,x
	$EC06  C9 07:       cmp #$07
	$EC08  90 23:       bcc ++		; $EC2D -> rts
	$EC0A  A9 02:       lda #$02
	$EC0C  95 88:       sta $88,x
	$EC0E  A9 00:       lda #$00
	$EC10  95 7F:       sta $7F,x
	$EC12  BC 51 04:    ldy $0451,x
	$EC15  B9 A4 EC:    lda _data_6CA4_indexed,y
	$EC18  BC 7E 04:    ldy $047E,x
	$EC1B  D0 08:       bne +		; $EC25
	$EC1D  DE 7E 04:    dec $047E,x
	$EC20  BD 51 04:    lda $0451,x
	$EC23  29 03:       and #$03
+	$EC25  9D 51 04:    sta $0451,x
	$EC28  A9 FE:       lda #$FE
	$EC2A  9D 1B 04:    sta $041B,x
++	$EC2D  60:          rts 

++++	$EC2E  20 DF E6:    jsr _func_66DF
	$EC31  B5 31:       lda $31,x
	$EC33  29 C3:       and #$C3
	$EC35  F0 08:       beq +		; $EC3F
	$EC37  E0 02:       cpx #$02
	$EC39  B0 04:       bcs +		; $EC3F
	$EC3B  A9 00:       lda #$00
	$EC3D  95 BD:       sta $BD,x
+	$EC3F  B5 31:       lda $31,x
	$EC41  29 40:       and #$40
	$EC43  D0 12:       bne ++		; $EC57
	$EC45  B5 31:       lda $31,x
	$EC47  29 80:       and #$80
	$EC49  D0 07:       bne +		; $EC52
	$EC4B  A9 00:       lda #$00
	$EC4D  9D 20 06:    sta $0620,x
	$EC50  F0 51:       beq +++		; $ECA3 -> rts

+	$EC52  BD 20 06:    lda $0620,x
	$EC55  D0 4C:       bne +++		; $ECA3 -> rts
++	$EC57  B5 7F:       lda $7F,x
	$EC59  C9 02:       cmp #$02
	$EC5B  90 0E:       bcc +		; $EC6B
	$EC5D  D6 9A:       dec $9A,x
	$EC5F  D6 9A:       dec $9A,x
	$EC61  A9 00:       lda #$00
	$EC63  9D 12 04:    sta $0412,x
	$EC66  9D 1B 04:    sta $041B,x
	$EC69  F0 09:       beq ++		; $EC74

+	$EC6B  C9 01:       cmp #$01
	$EC6D  F0 05:       beq ++		; $EC74
	$EC6F  BD 36 04:    lda $0436,x
	$EC72  D0 2F:       bne +++		; $ECA3 -> rts
++	$EC74  A9 00:       lda #$00
	$EC76  95 7F:       sta $7F,x
	$EC78  A9 01:       lda #$01
	$EC7A  9D 36 04:    sta $0436,x
	$EC7D  A9 01:       lda #$01
	$EC7F  9D 20 06:    sta $0620,x
	$EC82  A0 00:       ldy #$00
	$EC84  E0 02:       cpx #$02
	$EC86  90 01:       bcc +		; $EC89
	$EC88  C8:          iny 
+	$EC89  B9 F0 00:    lda $00F0,y
	$EC8C  09 10:       ora #$10
	$EC8E  99 F0 00:    sta $00F0,y
	$EC91  BD 12 04:    lda $0412,x
	$EC94  38:          sec 
	$EC95  BC 51 04:    ldy $0451,x
	$EC98  F9 03 E6:    sbc _data_6603_indexed,y
	$EC9B  9D 12 04:    sta $0412,x
	$EC9E  B0 03:       bcs +++		; $ECA3 -> rts
	$ECA0  DE 1B 04:    dec $041B,x
+++	$ECA3  60:          rts 
;------------------------------------------
_data_6CA4_indexed
	$ECA4               .byte $01,$02,$02,$03,$01,$02,$02,$03,$01,$02,$02,$03
_func_6CB0
	$ECB0  B5 7F:       lda $7F,x
	$ECB2  D0 69:       bne ++		; $ED1D -> rts
	$ECB4  20 A7 E7:    jsr _func_67A7
	$ECB7  20 84 EB:    jsr _func_6B84
	$ECBA  BD 09 04:    lda $0409,x
	$ECBD  38:          sec 
	$ECBE  E9 60:       sbc #$60
	$ECC0  9D 09 04:    sta $0409,x
	$ECC3  B5 9A:       lda $9A,x
	$ECC5  E9 00:       sbc #$00
	$ECC7  95 9A:       sta $9A,x
	$ECC9  C9 F1:       cmp #$F1
	$ECCB  90 04:       bcc +		; $ECD1
	$ECCD  A9 FF:       lda #$FF
	$ECCF  95 88:       sta $88,x
+	$ECD1  8A:          txa 
	$ECD2  48:          pha 
	$ECD3  A0 01:        ldy #$01
-	$ECD5  B9 88 00:     lda $0088,y
	$ECD8  F0 3E:        beq +		; $ED18
	$ECDA  30 3C:        bmi +		; $ED18
	$ECDC  B5 9A:        lda $9A,x
	$ECDE  38:           sec 
	$ECDF  F9 9A 00:     sbc $009A,y
	$ECE2  20 84 F0:     jsr _func_7084
	$ECE5  C9 18:        cmp #$18
	$ECE7  B0 2F:        bcs +		; $ED18
	$ECE9  B5 91:        lda $91,x
	$ECEB  38:           sec 
	$ECEC  F9 91 00:     sbc $0091,y
	$ECEF  20 84 F0:     jsr _func_7084
	$ECF2  C9 10:        cmp #$10
	$ECF4  B0 22:        bcs +		; $ED18
	$ECF6  A9 FF:        lda #$FF
	$ECF8  95 7F:        sta $7F,x
	$ECFA  A9 03:        lda #$03
	$ECFC  9D 5A 04:     sta $045A,x
	$ECFF  A9 78:        lda #$78
	$ED01  85 C5:        sta $C5
	$ED03  A9 02:        lda #$02
	$ED05  85 F0:        sta $F0
	$ED07  A9 32:        lda #$32
	$ED09  84 3E:        sty $3E
	$ED0B  20 D4 D6:     jsr _func_56D4
	$ED0E  A9 01:        lda #$01
	$ED10  A6 3E:        ldx $3E
	$ED12  20 67 D8:     jsr _func_5867
	$ED15  68:          pla 
	$ED16  AA:          tax 
	$ED17  60:          rts 

+	$ED18  88:          dey 
	$ED19  10 BA:       bpl -		; $ECD5
	$ED1B  68:          pla 
	$ED1C  AA:          tax 
++ --	$ED1D  60:          rts 
;------------------------------------------
_func_6D1E
	$ED1E  B4 88:       ldy $88,x
	$ED20  88:          dey 
	$ED21  10 01:       bpl +		; $ED24
-	$ED23  60:          rts 

+	$ED24  B5 9A:       lda $9A,x
	$ED26  C9 F9:       cmp #$F9
	$ED28  90 0C:       bcc +		; $ED36
	$ED2A  BD 1B 04:    lda $041B,x
	$ED2D  10 F4:       bpl -		; $ED23 -> rts
	$ED2F  A9 00:       lda #$00
	$ED31  85 CC:       sta $CC
	$ED33  4C D7 ED:    jmp _loc_6DD7

+	$ED36  A4 CD:       ldy $CD
	$ED38  30 E3:       bmi --		; $ED1D -> rts
-	$ED3A  A9 00:       lda #$00
	$ED3C  85 CC:       sta $CC
	$ED3E  B1 27:       lda ($27),y
	$ED40  38:          sec 
	$ED41  E9 18:       sbc #$18
	$ED43  D5 9A:       cmp $9A,x
	$ED45  B0 65:       bcs ++++		; $EDAC
	$ED47  69 03:       adc #$03
	$ED49  D5 9A:       cmp $9A,x
	$ED4B  90 04:       bcc +		; $ED51
	$ED4D  A9 01:       lda #$01
	$ED4F  D0 0E:       bne ++		; $ED5F

+	$ED51  B1 29:       lda ($29),y
	$ED53  D5 9A:       cmp $9A,x
	$ED55  90 55:       bcc ++++		; $EDAC
	$ED57  E9 03:       sbc #$03
	$ED59  D5 9A:       cmp $9A,x
	$ED5B  B0 22:       bcs +++		; $ED7F
	$ED5D  A9 02:       lda #$02
++	$ED5F  85 CC:       sta $CC
	$ED61  B1 23:       lda ($23),y
	$ED63  C9 10:       cmp #$10
	$ED65  F0 07:       beq +		; $ED6E
	$ED67  38:          sec 
	$ED68  E9 0C:       sbc #$0C
	$ED6A  D5 91:       cmp $91,x
	$ED6C  B0 0D:       bcs ++		; $ED7B
+	$ED6E  B1 25:       lda ($25),y
	$ED70  C9 FF:       cmp #$FF
	$ED72  F0 0B:       beq +++		; $ED7F
	$ED74  38:          sec 
	$ED75  E9 04:       sbc #$04
	$ED77  D5 91:       cmp $91,x
	$ED79  B0 04:       bcs +++		; $ED7F
++	$ED7B  A9 00:       lda #$00
	$ED7D  85 CC:       sta $CC
+++	$ED7F  B1 23:       lda ($23),y
	$ED81  38:          sec 
	$ED82  E9 10:       sbc #$10
	$ED84  F0 10:       beq +		; $ED96
	$ED86  D5 91:       cmp $91,x
	$ED88  B0 22:       bcs ++++		; $EDAC
	$ED8A  69 04:       adc #$04
	$ED8C  D5 91:       cmp $91,x
	$ED8E  90 06:       bcc +		; $ED96
	$ED90  A5 CC:       lda $CC
	$ED92  09 04:       ora #$04
	$ED94  D0 14:       bne ++		; $EDAA
+	$ED96  B1 25:       lda ($25),y
	$ED98  C9 FF:       cmp #$FF
	$ED9A  F0 10:       beq ++++		; $EDAC
	$ED9C  D5 91:       cmp $91,x
	$ED9E  90 0C:       bcc ++++		; $EDAC
	$EDA0  E9 04:       sbc #$04
	$EDA2  D5 91:       cmp $91,x
	$EDA4  B0 06:       bcs ++++		; $EDAC
	$EDA6  A5 CC:       lda $CC
	$EDA8  09 08:       ora #$08
++	$EDAA  85 CC:       sta $CC
++++	$EDAC  A5 CC:       lda $CC
	$EDAE  D0 07:       bne ++		; $EDB7
	$EDB0  88:          dey 
	$EDB1  30 03:       bmi +		; $EDB6 -> rts
	$EDB3  4C 3A ED:    jmp -		; $ED3A

+	$EDB6  60:          rts 

++	$EDB7  46 CC:       lsr $CC
	$EDB9  90 11:       bcc +		; $EDCC
	$EDBB  BD 1B 04:    lda $041B,x
	$EDBE  30 0C:       bmi +		; $EDCC
	$EDC0  B1 27:       lda ($27),y
	$EDC2  E9 18:       sbc #$18
	$EDC4  95 9A:       sta $9A,x
	$EDC6  F6 9A:       inc $9A,x
	$EDC8  A9 01:       lda #$01
	$EDCA  85 CB:       sta $CB
+	$EDCC  46 CC:       lsr $CC
	$EDCE  90 1A:       bcc _loc_6DEA
	$EDD0  BD 1B 04:    lda $041B,x
	$EDD3  10 15:       bpl _loc_6DEA
	$EDD5  B1 29:       lda ($29),y
_loc_6DD7
	$EDD7  95 9A:       sta $9A,x
	$EDD9  20 FD F0:    jsr _func_70FD
	$EDDC  20 82 F1:    jsr _func_7182
	$EDDF  E0 02:       cpx #$02
	$EDE1  B0 03:       bcs +		; $EDE6
	$EDE3  20 29 CC:    jsr _func_4C29
+	$EDE6  A5 CB:       lda $CB
	$EDE8  D0 30:       bne _loc_6E1A		; $EE1A -> rts
_loc_6DEA
	$EDEA  46 CC:       lsr $CC
	$EDEC  90 07:       bcc +		; $EDF5
	$EDEE  BD 2D 04:    lda $042D,x
	$EDF1  30 02:       bmi +		; $EDF5
	$EDF3  10 09:       bpl ++		; $EDFE
+	$EDF5  46 CC:       lsr $CC
	$EDF7  90 21:       bcc _loc_6E1A		; $EE1A -> rts
	$EDF9  BD 2D 04:    lda $042D,x
	$EDFC  10 1C:       bpl _loc_6E1A		; $EE1A -> rts
++	$EDFE  20 D4 F0:    jsr _func_70D4
	$EE01  20 68 F1:    jsr _func_7168
	$EE04  BD 2D 04:    lda $042D,x
	$EE07  1D 24 04:    ora $0424,x
	$EE0A  F0 0E:       beq _loc_6E1A		; $EE1A -> rts
	$EE0C  BD 48 04:    lda $0448,x
	$EE0F  49 01:       eor #$01
	$EE11  9D 48 04:    sta $0448,x
	$EE14  A5 F1:       lda $F1
	$EE16  09 02:       ora #$02
	$EE18  85 F1:       sta $F1
_loc_6E1A
	$EE1A  60:          rts 
;------------------------------------------
_func_6E1B
	$EE1B  A2 07:       ldx #$07
---	$EE1D  86 12:       stx $12
	$EE1F  A4 12:       ldy $12
	$EE21  88:          dey 
	$EE22  10 03:       bpl +		; $EE27
--	$EE24  4C 20 EF:    jmp _loc_6F20

+ -	$EE27  B5 88:       lda $88,x
	$EE29  30 F9:       bmi --		; $EE24 -> _loc_6F20
	$EE2B  F0 F7:       beq --		; $EE24 -> _loc_6F20
	$EE2D  B9 88 00:    lda $0088,y
	$EE30  30 F2:       bmi --		; $EE24 -> _loc_6F20
	$EE32  F0 F0:       beq --		; $EE24 -> _loc_6F20
	$EE34  A9 00:       lda #$00
	$EE36  85 CC:       sta $CC
	$EE38  B9 9A 00:    lda $009A,y
	$EE3B  38:          sec 
	$EE3C  F5 9A:       sbc $9A,x
	$EE3E  20 84 F0:    jsr _func_7084
	$EE41  C9 18:       cmp #$18
	$EE43  B0 71:       bcs ++++		; $EEB6
	$EE45  B5 9A:       lda $9A,x
	$EE47  18:          clc 
	$EE48  69 18:       adc #$18
	$EE4A  85 12:       sta $12
	$EE4C  B9 9A 00:    lda $009A,y
	$EE4F  18:          clc 
	$EE50  69 07:       adc #$07
	$EE52  38:          sec 
	$EE53  E5 12:       sbc $12
	$EE55  20 84 F0:    jsr _func_7084
	$EE58  C9 04:       cmp #$04
	$EE5A  B0 04:       bcs +		; $EE60
	$EE5C  A9 01:       lda #$01
	$EE5E  D0 12:       bne ++		; $EE72

+	$EE60  B9 9A 00:    lda $009A,y
	$EE63  18:          clc 
	$EE64  69 11:       adc #$11
	$EE66  38:          sec 
	$EE67  F5 9A:       sbc $9A,x
	$EE69  20 84 F0:    jsr _func_7084
	$EE6C  C9 04:       cmp #$04
	$EE6E  B0 15:       bcs +++		; $EE85
	$EE70  A9 02:       lda #$02
++	$EE72  85 CC:       sta $CC
	$EE74  B9 91 00:    lda $0091,y
	$EE77  38:          sec 
	$EE78  F5 91:       sbc $91,x
	$EE7A  20 84 F0:    jsr _func_7084
	$EE7D  C9 10:       cmp #$10
	$EE7F  90 04:       bcc +++		; $EE85
	$EE81  A9 00:       lda #$00
	$EE83  85 CC:       sta $CC
+++	$EE85  B5 91:       lda $91,x
	$EE87  18:          clc 
	$EE88  69 10:       adc #$10
	$EE8A  85 12:       sta $12
	$EE8C  B9 91 00:    lda $0091,y
	$EE8F  18:          clc 
	$EE90  69 07:       adc #$07
	$EE92  38:          sec 
	$EE93  E5 12:       sbc $12
	$EE95  20 84 F0:    jsr _func_7084
	$EE98  C9 04:       cmp #$04
	$EE9A  B0 04:       bcs +		; $EEA0
	$EE9C  A9 04:       lda #$04
	$EE9E  D0 12:       bne ++		; $EEB2

+	$EEA0  B9 91 00:    lda $0091,y
	$EEA3  18:          clc 
	$EEA4  69 09:       adc #$09
	$EEA6  38:          sec 
	$EEA7  F5 91:       sbc $91,x
	$EEA9  20 84 F0:    jsr _func_7084
	$EEAC  C9 04:       cmp #$04
	$EEAE  B0 06:       bcs ++++		; $EEB6
	$EEB0  A9 08:       lda #$08
++	$EEB2  05 CC:       ora $CC
	$EEB4  85 CC:       sta $CC
++++	$EEB6  A9 00:       lda #$00
	$EEB8  85 4B:       sta $4B
	$EEBA  46 CC:       lsr $CC
	$EEBC  90 05:       bcc +		; $EEC3
	$EEBE  20 9C F0:    jsr _func_709C
	$EEC1  30 09:       bmi ++		; $EECC
+	$EEC3  46 CC:       lsr $CC
	$EEC5  90 20:       bcc +++		; $EEE7
	$EEC7  20 9C F0:    jsr _func_709C
	$EECA  30 1B:       bmi +++		; $EEE7
++	$EECC  20 B3 F0:    jsr _func_70B3
	$EECF  B0 12:       bcs +		; $EEE3
	$EED1  20 FD F0:    jsr _func_70FD
	$EED4  20 82 F1:    jsr _func_7182
	$EED7  20 AA F0:    jsr _func_70AA
	$EEDA  20 FD F0:    jsr _func_70FD
	$EEDD  20 82 F1:    jsr _func_7182
	$EEE0  20 AA F0:    jsr _func_70AA
+	$EEE3  A9 01:       lda #$01
	$EEE5  85 4B:       sta $4B
+++	$EEE7  46 CC:       lsr $CC
	$EEE9  90 05:       bcc +		; $EEF0
	$EEEB  20 8E F0:    jsr _func_708E
	$EEEE  30 09:       bmi ++		; $EEF9
+	$EEF0  46 CC:       lsr $CC
	$EEF2  90 20:       bcc +++		; $EF14
	$EEF4  20 8E F0:    jsr _func_708E
	$EEF7  30 1B:       bmi +++		; $EF14
++	$EEF9  20 B3 F0:    jsr _func_70B3
	$EEFC  B0 12:       bcs +		; $EF10
	$EEFE  20 D4 F0:    jsr _func_70D4
	$EF01  20 68 F1:    jsr _func_7168
	$EF04  20 AA F0:    jsr _func_70AA
	$EF07  20 D4 F0:    jsr _func_70D4
	$EF0A  20 68 F1:    jsr _func_7168
	$EF0D  20 AA F0:    jsr _func_70AA
+	$EF10  A9 01:       lda #$01
	$EF12  85 4B:       sta $4B
+++	$EF14  20 2D EF:    jsr _func_6F2D
	$EF17  20 AA F0:    jsr _func_70AA
	$EF1A  20 2D EF:    jsr _func_6F2D
	$EF1D  20 AA F0:    jsr _func_70AA
_loc_6F20
	$EF20  88:          dey 
	$EF21  30 03:       bmi +		; $EF26
	$EF23  4C 27 EE:    jmp -		; $EE27

+	$EF26  CA:          dex 
	$EF27  30 03:       bmi +		; $EF2C -> rts
	$EF29  4C 1D EE:    jmp ---		; $EE1D

+	$EF2C  60:          rts 
;------------------------------------------
_func_6F2D
	$EF2D  E0 02:       cpx #$02
	$EF2F  90 07:       bcc +		; $EF38
	$EF31  C0 02:       cpy #$02
	$EF33  90 03:       bcc +		; $EF38
	$EF35  4C 39 F0:    jmp ++++		; $F039

+	$EF38  A9 00:       lda #$00
	$EF3A  8D 87 04:    sta $0487
	$EF3D  BD 75 04:    lda $0475,x
	$EF40  F0 03:       beq +		; $EF45
	$EF42  4C 39 F0:    jmp ++++		; $F039

+	$EF45  A5 4B:       lda $4B
	$EF47  D0 03:       bne +		; $EF4C
	$EF49  4C 39 F0:    jmp ++++		; $F039

+	$EF4C  E0 02:       cpx #$02
	$EF4E  B0 07:       bcs +		; $EF57
	$EF50  B5 BD:       lda $BD,x
	$EF52  F0 14:       beq ++		; $EF68
	$EF54  4C 39 F0:    jmp ++++		; $F039

+	$EF57  B5 88:       lda $88,x
	$EF59  C9 01:       cmp #$01
	$EF5B  D0 0B:       bne ++		; $EF68
	$EF5D  B5 7F:       lda $7F,x
	$EF5F  C9 02:       cmp #$02
	$EF61  B0 12:       bcs +++		; $EF75
	$EF63  A9 01:       lda #$01
	$EF65  8D 87 04:    sta $0487
++	$EF68  B9 9A 00:    lda $009A,y
	$EF6B  18:          clc 
	$EF6C  69 04:       adc #$04
	$EF6E  D5 9A:       cmp $9A,x
	$EF70  90 03:       bcc +++		; $EF75
	$EF72  4C 39 F0:    jmp ++++		; $F039

+++	$EF75  A9 14:       lda #$14
	$EF77  9D 75 04:    sta $0475,x
	$EF7A  A9 00:       lda #$00
	$EF7C  9D 36 04:    sta $0436,x
	$EF7F  C0 02:       cpy #$02
	$EF81  90 0A:       bcc +		; $EF8D
	$EF83  B9 88 00:    lda $0088,y
	$EF86  C9 02:       cmp #$02
	$EF88  F0 03:       beq +		; $EF8D
	$EF8A  4C 39 F0:    jmp ++++		; $F039

+	$EF8D  A5 F0:       lda $F0
	$EF8F  09 02:       ora #$02
	$EF91  85 F0:       sta $F0
	$EF93  B5 88:       lda $88,x
	$EF95  C9 02:       cmp #$02
	$EF97  D0 1D:       bne ++		; $EFB6
	$EF99  E0 02:       cpx #$02
	$EF9B  B0 19:       bcs ++		; $EFB6
	$EF9D  84 12:       sty $12
	$EF9F  B4 7F:       ldy $7F,x
	$EFA1  B9 49 F0:    lda _data_7049_indexed,y
	$EFA4  A4 12:       ldy $12
	$EFA6  48:          pha 
	$EFA7  68:          pla 
	$EFA8  D0 03:       bne +		; $EFAD
	$EFAA  4C 39 F0:    jmp ++++		; $F039

+	$EFAD  95 7F:       sta $7F,x
	$EFAF  A9 00:       lda #$00
	$EFB1  9D 36 04:    sta $0436,x
	$EFB4  F0 2A:       beq +++		; $EFE0

++	$EFB6  D6 88:       dec $88,x
	$EFB8  D0 0A:       bne +		; $EFC4
	$EFBA  A9 FF:       lda #$FF
	$EFBC  9D 1B 04:    sta $041B,x
	$EFBF  A9 00:       lda #$00
	$EFC1  9D 12 04:    sta $0412,x
+	$EFC4  A9 00:       lda #$00
	$EFC6  95 7F:       sta $7F,x
	$EFC8  9D 24 04:    sta $0424,x
	$EFCB  9D 2D 04:    sta $042D,x
	$EFCE  B5 91:       lda $91,x
	$EFD0  30 04:       bmi +		; $EFD6
	$EFD2  A9 FF:       lda #$FF
	$EFD4  D0 02:       bne ++		; $EFD8

+	$EFD6  A9 00:       lda #$00
++	$EFD8  9D 6C 04:    sta $046C,x
	$EFDB  A9 80:       lda #$80
	$EFDD  9D 63 04:    sta $0463,x
+++	$EFE0  84 12:       sty $12
	$EFE2  BC 51 04:    ldy $0451,x
	$EFE5  B9 54 F0:    lda _data_7054_indexed,y
	$EFE8  9D 51 04:    sta $0451,x
	$EFEB  A9 01:       lda #$01
	$EFED  9D 7E 04:    sta $047E,x
	$EFF0  A4 12:       ldy $12
	$EFF2  C0 02:       cpy #$02
	$EFF4  B0 43:       bcs ++++		; $F039
	$EFF6  BD 51 04:    lda $0451,x
	$EFF9  C9 07:       cmp #$07
	$EFFB  F0 0A:       beq +		; $F007
	$EFFD  C9 08:       cmp #$08
	$EFFF  90 06:       bcc +		; $F007
	$F001  A5 F1:       lda $F1
	$F003  09 80:       ora #$80
	$F005  85 F1:       sta $F1
+	$F007  BC 51 04:    ldy $0451,x
	$F00A  B9 60 F0:    lda _data_7060_indexed,y
	$F00D  85 13:       sta $13
	$F00F  AD 87 04:    lda $0487
	$F012  F0 05:       beq +		; $F019
	$F014  B9 6C F0:    lda _data_706C_indexed,y
	$F017  85 13:       sta $13
+	$F019  B9 78 F0:    lda _data_7078_indexed,y
	$F01C  18:          clc 
	$F01D  6D 87 04:    adc $0487
	$F020  85 14:       sta $14
	$F022  A5 12:       lda $12
	$F024  85 3E:       sta $3E
	$F026  48:          pha 
	$F027  8A:           txa 
	$F028  48:           pha 
	$F029  A5 13:         lda $13
	$F02B  48:            pha 
	$F02C  A5 14:          lda $14
	$F02E  20 67 D8:       jsr _func_5867
	$F031  68:            pla 
	$F032  20 D4 D6:      jsr _func_56D4
	$F035  68:           pla 
	$F036  AA:           tax 
	$F037  68:          pla 
	$F038  A8:          tay 
++++	$F039  BD 51 04:    lda $0451,x
	$F03C  C9 0B:       cmp #$0B
	$F03E  D0 08:       bne +		; $F048 -> rts
	$F040  A5 C8:       lda $C8
	$F042  D0 04:       bne +		; $F048 -> rts
	$F044  A9 20:       lda #$20
	$F046  85 F0:       sta $F0
+	$F048  60:          rts 
;------------------------------------------
_data_7049_indexed
	$F049               .byte $06,$06,$07,$08,$09,$0A,$00,$00,$00,$00,$00
_data_7054_indexed
	$F054               .byte $04,$05,$06,$07,$08,$09,$0A,$0B,$08,$09,$0A,$0B
_data_7060_indexed
	$F060               .byte $00,$00,$00,$00,$32,$4B,$64,$64,$4B,$64,$96,$64
_data_706C_indexed
	$F06C               .byte $00,$00,$00,$00,$32,$4B,$64,$64,$64,$96,$C8,$64
_data_7078_indexed
	$F078               .byte $00,$00,$00,$00,$01,$02,$03,$03,$02,$03,$04,$03
_func_7084
	$F084  48:          pha 
	$F085  68:          pla 
	$F086  10 05:       bpl +		; $F08D -> rts
	$F088  49 FF:       eor #$FF
	$F08A  18:          clc 
	$F08B  69 01:       adc #$01
+	$F08D  60:          rts 
;------------------------------------------
_func_708E
	$F08E  B9 24 04:    lda $0424,y
	$F091  38:          sec 
	$F092  FD 24 04:    sbc $0424,x
	$F095  B9 2D 04:    lda $042D,y
	$F098  FD 2D 04:    sbc $042D,x
	$F09B  60:          rts 
;------------------------------------------
_func_709C
	$F09C  B9 12 04:    lda $0412,y
	$F09F  38:          sec 
	$F0A0  FD 12 04:    sbc $0412,x
	$F0A3  B9 1B 04:    lda $041B,y
	$F0A6  FD 1B 04:    sbc $041B,x
	$F0A9  60:          rts 
;------------------------------------------
_func_70AA
	$F0AA  86 12:       stx $12
	$F0AC  84 13:       sty $13
	$F0AE  A6 13:       ldx $13
	$F0B0  A4 12:       ldy $12
	$F0B2  60:          rts 
;------------------------------------------
_func_70B3
	$F0B3  E0 02:       cpx #$02
	$F0B5  90 1C:       bcc +		; $F0D3 -> rts
	$F0B7  B5 7F:       lda $7F,x
	$F0B9  C9 02:       cmp #$02
	$F0BB  90 16:       bcc +		; $F0D3 -> rts
	$F0BD  A9 01:       lda #$01
	$F0BF  D5 88:       cmp $88,x
	$F0C1  B0 10:       bcs +		; $F0D3 -> rts
	$F0C3  C0 02:       cpy #$02
	$F0C5  90 0C:       bcc +		; $F0D3 -> rts
	$F0C7  B9 7F 00:    lda $007F,y
	$F0CA  C9 02:       cmp #$02
	$F0CC  90 05:       bcc +		; $F0D3 -> rts
	$F0CE  A9 01:       lda #$01
	$F0D0  D9 88 00:    cmp $0088,y
+	$F0D3  60:          rts 
;------------------------------------------
_func_70D4
	$F0D4  A9 00:       lda #$00
	$F0D6  38:          sec 
	$F0D7  FD 24 04:    sbc $0424,x
	$F0DA  9D 24 04:    sta $0424,x
	$F0DD  A9 00:       lda #$00
	$F0DF  FD 2D 04:    sbc $042D,x
	$F0E2  9D 2D 04:    sta $042D,x
	$F0E5  A9 00:       lda #$00
	$F0E7  38:          sec 
	$F0E8  FD 63 04:    sbc $0463,x
	$F0EB  9D 63 04:    sta $0463,x
	$F0EE  A9 00:       lda #$00
	$F0F0  FD 6C 04:    sbc $046C,x
	$F0F3  9D 6C 04:    sta $046C,x
	$F0F6  B5 31:       lda $31,x
	$F0F8  29 40:       and #$40
	$F0FA  95 31:       sta $31,x
	$F0FC  60:          rts 
;------------------------------------------
_func_70FD
	$F0FD  A9 00:       lda #$00
	$F0FF  38:          sec 
	$F100  FD 12 04:    sbc $0412,x
	$F103  9D 12 04:    sta $0412,x
	$F106  A9 00:       lda #$00
	$F108  FD 1B 04:    sbc $041B,x
	$F10B  9D 1B 04:    sta $041B,x
	$F10E  60:          rts 
;------------------------------------------
_func_710F
	$F10F  85 2D:       sta $2D
	$F111  A5 2C:       lda $2C
	$F113  10 24:       bpl _func_7139
	$F115  A9 00:       lda #$00
	$F117  38:          sec 
	$F118  E5 2B:       sbc $2B
	$F11A  85 2B:       sta $2B
	$F11C  A9 00:       lda #$00
	$F11E  E5 2C:       sbc $2C
	$F120  85 2C:       sta $2C
	$F122  20 39 F1:    jsr _func_7139
	$F125  A9 00:       lda #$00
	$F127  38:          sec 
	$F128  E5 2E:       sbc $2E
	$F12A  85 2E:       sta $2E
	$F12C  A9 00:       lda #$00
	$F12E  E5 2F:       sbc $2F
	$F130  85 2F:       sta $2F
	$F132  A9 00:       lda #$00
	$F134  E5 30:       sbc $30
	$F136  85 30:       sta $30
	$F138  60:          rts 
;------------------------------------------
_func_7139
	$F139  8A:          txa 
	$F13A  48:          pha 
	$F13B  A9 00:        lda #$00
	$F13D  85 2E:        sta $2E
	$F13F  85 2F:        sta $2F
	$F141  85 30:        sta $30
	$F143  A2 08:        ldx #$08
-	$F145  06 2E:        asl $2E
	$F147  26 2F:        rol $2F
	$F149  26 30:        rol $30
	$F14B  06 2D:        asl $2D
	$F14D  90 13:        bcc +		; $F162
	$F14F  18:           clc 
	$F150  A5 2B:        lda $2B
	$F152  65 2E:        adc $2E
	$F154  85 2E:        sta $2E
	$F156  A5 2C:        lda $2C
	$F158  65 2F:        adc $2F
	$F15A  85 2F:        sta $2F
	$F15C  A9 00:        lda #$00
	$F15E  65 30:        adc $30
	$F160  85 30:        sta $30
+	$F162  CA:           dex 
	$F163  D0 E0:        bne -		; $F145
	$F165  68:          pla 
	$F166  AA:          tax 
	$F167  60:          rts 
;------------------------------------------
_func_7168
	$F168  BD 24 04:    lda $0424,x
	$F16B  85 2B:       sta $2B
	$F16D  BD 2D 04:    lda $042D,x
	$F170  85 2C:       sta $2C
	$F172  A9 CD:       lda #$CD
	$F174  20 0F F1:    jsr _func_710F
	$F177  A5 2F:       lda $2F
	$F179  9D 24 04:    sta $0424,x
	$F17C  A5 30:       lda $30
	$F17E  9D 2D 04:    sta $042D,x
	$F181  60:          rts 
;------------------------------------------
_func_7182
	$F182  BD 12 04:    lda $0412,x
	$F185  85 2B:       sta $2B
	$F187  BD 1B 04:    lda $041B,x
	$F18A  85 2C:       sta $2C
	$F18C  A9 CD:       lda #$CD
	$F18E  20 0F F1:    jsr _func_710F
	$F191  A5 2F:       lda $2F
	$F193  9D 12 04:    sta $0412,x
	$F196  A5 30:       lda $30
	$F198  9D 1B 04:    sta $041B,x
	$F19B  60:          rts 
;------------------------------------------
_func_719C
	$F19C  A0 04:       ldy #$04
-	$F19E  A5 13:       lda $13
	$F1A0  0A:          asl a
	$F1A1  66 13:       ror $13
	$F1A3  66 12:       ror $12
	$F1A5  88:          dey 
	$F1A6  D0 F6:       bne -		; $F19E
	$F1A8  60:          rts 
;------------------------------------------
_func_71A9
	$F1A9  8A:          txa 
	$F1AA  48:          pha 
	$F1AB  A2 0B:        ldx #$0B
-	$F1AD  06 1B:        asl $1B
	$F1AF  26 1C:        rol $1C
	$F1B1  2A:           rol a
	$F1B2  2A:           rol a
	$F1B3  45 1B:        eor $1B
	$F1B5  2A:           rol a
	$F1B6  45 1B:        eor $1B
	$F1B8  4A:           lsr a
	$F1B9  4A:           lsr a
	$F1BA  49 FF:        eor #$FF
	$F1BC  29 01:        and #$01
	$F1BE  05 1B:        ora $1B
	$F1C0  85 1B:        sta $1B
	$F1C2  CA:           dex 
	$F1C3  D0 E8:        bne -		; $F1AD
	$F1C5  68:          pla 
	$F1C6  AA:          tax 
	$F1C7  A5 1B:       lda $1B
	$F1C9  60:          rts 
;------------------------------------------
_loc_71CA
	$F1CA  20 B7 DA:    jsr _func_5AB7
	$F1CD  A2 09:       ldx #$09
-	$F1CF  A9 00:       lda #$00
	$F1D1  95 03:       sta $03,x
	$F1D3  CA:          dex 
	$F1D4  10 F9:       bpl -		; $F1CF
	$F1D6  85 3E:       sta $3E
	$F1D8  E6 41:       inc $41
	$F1DA  20 D4 D6:    jsr _func_56D4
	$F1DD  A9 0F:       lda #$0F
	$F1DF  8D 15 40:    sta $4015
	$F1E2  A9 01:       lda #$01
	$F1E4  85 F0:       sta $F0
	$F1E6  A9 02:       lda #$02
_func_71E8
	$F1E8  85 41:       sta $41
	$F1EA  A4 40:       ldy $40
	$F1EC  D0 02:       bne +		; $F1F0
	$F1EE  A9 FF:       lda #$FF
+	$F1F0  85 42:       sta $42
	$F1F2  A2 00:       ldx #$00
	$F1F4  8E 88 04:    stx $0488
	$F1F7  86 3B:       stx $3B
	$F1F9  86 3C:       stx $3C
	$F1FB  8E 58 05:    stx $0558
	$F1FE  CA:          dex 
	$F1FF  86 89:       stx $89
	$F201  A6 40:       ldx $40
-	$F203  20 A6 F3:    jsr _func_73A6
	$F206  CA:          dex 
	$F207  10 FA:       bpl -		; $F203
---	$F209  A9 00:       lda #$00
	$F20B  85 C8:       sta $C8
	$F20D  A5 3C:       lda $3C
	$F20F  4A:          lsr a
	$F210  4A:          lsr a
	$F211  C9 08:       cmp #$08
	$F213  90 02:       bcc +		; $F217
	$F215  A9 08:       lda #$08
+	$F217  AA:          tax 
	$F218  BD B0 F3:    lda _data_73B0_indexed,x
	$F21B  85 C6:       sta $C6
	$F21D  BD B9 F3:    lda _data_73B9_indexed,x
	$F220  85 C7:       sta $C7
	$F222  A5 3C:       lda $3C
	$F224  C9 02:       cmp #$02
	$F226  B0 06:       bcs +		; $F22E
	$F228  A9 03:       lda #$03
	$F22A  85 C6:       sta $C6
	$F22C  85 C7:       sta $C7
+	$F22E  A2 07:       ldx #$07
-	$F230  A9 00:       lda #$00
	$F232  9D 48 04:    sta $0448,x
	$F235  9D 75 04:    sta $0475,x
	$F238  9D 7E 04:    sta $047E,x
	$F23B  9D 24 04:    sta $0424,x
	$F23E  9D 2D 04:    sta $042D,x
	$F241  9D 12 04:    sta $0412,x
	$F244  9D 1B 04:    sta $041B,x
	$F247  9D 63 04:    sta $0463,x
	$F24A  9D 6C 04:    sta $046C,x
	$F24D  9D 00 04:    sta $0400,x
	$F250  9D 09 04:    sta $0409,x
	$F253  A9 01:       lda #$01
	$F255  9D 3F 04:    sta $043F,x
	$F258  9D 5A 04:    sta $045A,x
	$F25B  A9 03:       lda #$03
	$F25D  9D 36 04:    sta $0436,x
	$F260  CA:          dex 
	$F261  10 CD:       bpl -		; $F230
	$F263  A2 05:       ldx #$05
-	$F265  A9 FF:       lda #$FF
	$F267  95 8A:       sta $8A,x
	$F269  CA:          dex 
	$F26A  10 F9:       bpl -		; $F265
	$F26C  A6 40:       ldx $40
-	$F26E  20 7C F3:    jsr _func_737C
	$F271  CA:          dex 
	$F272  10 FA:       bpl -		; $F26E
	$F274  20 3C D2:    jsr _func_523C
	$F277  20 89 D2:    jsr _func_5289
	$F27A  A5 C6:       lda $C6
	$F27C  C9 10:       cmp #$10
	$F27E  B0 04:       bcs +		; $F284
	$F280  A9 58:       lda #$58
	$F282  85 C6:       sta $C6
+	$F284  20 9B F4:    jsr _func_749B
	$F287  20 F5 D8:    jsr _func_58F5
	$F28A  A5 16:       lda $16
	$F28C  F0 03:       beq +		; $F291
	$F28E  4C BB C1:    jmp _loc_41BB

+	$F291  A5 C8:       lda $C8
	$F293  F0 03:       beq +		; $F298
	$F295  4C 09 CF:    jmp _loc_4F09

+	$F298  20 0C C7:    jsr _func_470C
	$F29B  A5 3B:       lda $3B
	$F29D  29 03:       and #$03
	$F29F  D0 08:       bne +		; $F2A9
	$F2A1  A9 08:       lda #$08
	$F2A3  85 F2:       sta $F2
	$F2A5  A6 3A:       ldx $3A
	$F2A7  D0 06:       bne ++		; $F2AF
+	$F2A9  A9 FF:       lda #$FF
	$F2AB  85 3D:       sta $3D
	$F2AD  E6 3C:       inc $3C
++ --	$F2AF  20 66 F4:    jsr _func_7466
	$F2B2  A5 3D:       lda $3D
	$F2B4  F0 05:       beq +		; $F2BB
	$F2B6  C6 3D:       dec $3D
	$F2B8  20 C2 F3:    jsr _func_73C2
+	$F2BB  20 A9 F1:    jsr _func_71A9
	$F2BE  20 87 E6:    jsr _func_6687
	$F2C1  20 EF C6:    jsr _func_46EF
	$F2C4  20 86 C7:    jsr _func_4786
	$F2C7  20 27 C8:    jsr _func_4827
	$F2CA  20 AD C8:    jsr _func_48AD
	$F2CD  20 D3 D8:    jsr _func_58D3
	$F2D0  20 7D E5:    jsr _func_657D
	$F2D3  20 6A CB:    jsr _func_4B6A
	$F2D6  E6 4C:       inc $4C
	$F2D8  A6 40:       ldx $40
-	$F2DA  B5 88:       lda $88,x
	$F2DC  10 25:       bpl +		; $F303
	$F2DE  A5 3A:       lda $3A
	$F2E0  D0 3A:       bne ++		; $F31C -> rts
	$F2E2  B5 41:       lda $41,x
	$F2E4  30 1D:       bmi +		; $F303
	$F2E6  D6 C3:       dec $C3,x
	$F2E8  D0 33:       bne +++		; $F31D
	$F2EA  8A:          txa 
	$F2EB  48:          pha 
	$F2EC  20 1C C7:     jsr _func_471C
	$F2EF  68:          pla 
	$F2F0  AA:          tax 
	$F2F1  A0 02:       ldy #$02
	$F2F3  D6 41:       dec $41,x
	$F2F5  84 46:       sty $46
	$F2F7  30 0A:       bmi +		; $F303
	$F2F9  20 7C F3:    jsr _func_737C
	$F2FC  20 A6 F3:    jsr _func_73A6
	$F2FF  A9 80:       lda #$80
	$F301  85 F2:       sta $F2
+	$F303  CA:          dex 
	$F304  10 D4:       bpl -		; $F2DA
	$F306  A5 41:       lda $41
	$F308  10 04:       bpl +		; $F30E
	$F30A  A5 42:       lda $42
	$F30C  30 4E:       bmi _loc_735C
+	$F30E  A5 3A:       lda $3A
	$F310  F0 0B:       beq +++		; $F31D
	$F312  20 5E E7:    jsr _func_675E
	$F315  AD 1C 06:    lda $061C
	$F318  29 30:       and #$30
	$F31A  F0 93:       beq --		; $F2AF
++	$F31C  60:          rts 

+++	$F31D  A2 05:       ldx #$05
-	$F31F  B5 8A:       lda $8A,x
	$F321  F0 02:       beq +		; $F325
	$F323  10 8A:       bpl --		; $F2AF
+	$F325  CA:          dex 
	$F326  10 F7:       bpl -		; $F31F
	$F328  A5 BB:       lda $BB
	$F32A  10 83:       bpl --		; $F2AF
	$F32C  A6 40:       ldx $40
-	$F32E  B4 88:       ldy $88,x
	$F330  88:          dey 
	$F331  10 0F:       bpl +		; $F342
	$F333  B5 41:       lda $41,x
	$F335  30 0B:       bmi +		; $F342
	$F337  A9 FF:       lda #$FF
	$F339  95 88:       sta $88,x
	$F33B  A9 01:       lda #$01
	$F33D  95 C3:       sta $C3,x
	$F33F  4C AF F2:    jmp --		; $F2AF

+	$F342  CA:          dex 
	$F343  10 E9:       bpl -		; $F32E
	$F345  A9 02:       lda #$02
	$F347  85 F2:       sta $F2
_loc_7349
	$F349  A2 96:       ldx #$96
	$F34B  20 54 F4:    jsr _func_7454
	$F34E  A6 3B:       ldx $3B
	$F350  E8:          inx 
	$F351  E0 10:       cpx #$10
	$F353  D0 02:       bne +		; $F357
	$F355  A2 04:       ldx #$04
+	$F357  86 3B:       stx $3B
	$F359  4C 09 F2:    jmp ---		; $F209
;------------------------------------------
_loc_735C
	$F35C  A9 01:       lda #$01
	$F35E  85 F2:       sta $F2
_loc_7360
	$F360  A9 00:       lda #$00
	$F362  85 17:       sta $17
	$F364  85 18:       sta $18
	$F366  85 15:       sta $15
	$F368  20 01 F4:    jsr _func_7401
-	$F36B  20 5B F4:    jsr _func_745B
	$F36E  20 5E E7:    jsr _func_675E
	$F371  29 30:       and #$30
	$F373  D0 04:       bne +		; $F379 -> _loc_71CA
	$F375  C6 15:       dec $15
	$F377  D0 F2:       bne -		; $F36B
+	$F379  4C CA F1:    jmp _loc_71CA
;------------------------------------------
_func_737C
	$F37C  B5 41:       lda $41,x
	$F37E  30 23:       bmi ++		; $F3A3 -> rts
	$F380  BD A4 F3:    lda _data_73A4_indexed,x
	$F383  95 91:       sta $91,x
	$F385  A9 B8:       lda #$B8
	$F387  95 9A:       sta $9A,x
	$F389  95 BD:       sta $BD,x
	$F38B  A9 C8:       lda #$C8
	$F38D  95 BF:       sta $BF,x
	$F38F  A9 5A:       lda #$5A
	$F391  B4 41:       ldy $41,x
	$F393  10 02:       bpl +		; $F397
	$F395  A9 01:       lda #$01
+	$F397  95 C3:       sta $C3,x
	$F399  A9 00:       lda #$00
	$F39B  95 C1:       sta $C1,x
	$F39D  9D 2D 04:    sta $042D,x
	$F3A0  9D 24 04:    sta $0424,x
++	$F3A3  60:          rts 
;------------------------------------------
_data_73A4_indexed
	$F3A4               .byte $20,$D0
_func_73A6
	$F3A6  A9 03:       lda #$03
	$F3A8  9D 51 04:    sta $0451,x
	$F3AB  A9 02:       lda #$02
	$F3AD  95 88:       sta $88,x
	$F3AF  60:          rts 
;------------------------------------------
_data_73B0_indexed
	$F3B0               .byte $58,$50,$58,$50,$50,$40,$38,$30,$28
_data_73B9_indexed
	$F3B9               .byte $04,$04,$03,$03,$02,$02,$02,$02,$02
_func_73C2
	$F3C2  A5 3D:       lda $3D
	$F3C4  29 20:       and #$20
	$F3C6  F0 1C:       beq +		; $F3E4
	$F3C8  A2 0A:       ldx #$0A
-	$F3CA  BD EB F3:    lda _data_73EB_indexed,x
	$F3CD  95 57:       sta $57,x
	$F3CF  CA:          dex 
	$F3D0  10 F8:       bpl -		; $F3CA
	$F3D2  A0 0A:       ldy #$0A
	$F3D4  A5 3C:       lda $3C
	$F3D6  85 43:       sta $43
	$F3D8  20 72 D7:    jsr _func_5772
	$F3DB  85 60:       sta $60
	$F3DD  A5 43:       lda $43
	$F3DF  85 61:       sta $61
	$F3E1  4C 23 C1:    jmp _func_4123

+	$F3E4  A9 F6:       lda #$F6
	$F3E6  A0 F3:       ldy #$F3
	$F3E8  4C 27 C1:    jmp _func_4127
;------------------------------------------
_data_73EB_indexed
	$F3EB               .byte $20,$6C,$08,$19,$11,$0A,$1C,$0E,$25,$00,$00,$20,$6C,$08,$24,$24
	$F3FB               .byte $24,$24,$24,$24,$24,$24
_func_7401
	$F401  20 5B F4:    jsr _func_745B
	$F404  A2 01:       ldx #$01
-	$F406  BD 31 F4:    lda _data_7431_indexed,x
	$F409  BC 33 F4:    ldy _data_7433_indexed,x
	$F40C  20 27 C1:    jsr _func_4127
	$F40F  CA:          dex 
	$F410  10 F4:       bpl -		; $F406
	$F412  A2 0F:       ldx #$0F
-	$F414  A9 24:       lda #$24
	$F416  95 5A:       sta $5A,x
	$F418  CA:          dex 
	$F419  10 F9:       bpl -		; $F414
	$F41B  A9 10:       lda #$10
	$F41D  85 59:       sta $59
	$F41F  A9 21:       lda #$21
	$F421  85 57:       sta $57
	$F423  A2 02:       ldx #$02
-	$F425  BD 35 F4:    lda _data_7435_indexed,x
	$F428  85 58:       sta $58
	$F42A  20 23 C1:    jsr _func_4123
	$F42D  CA:          dex 
	$F42E  10 F5:       bpl -		; $F425
	$F430  60:          rts 
;------------------------------------------
_data_7431_indexed
	$F431               .byte $38,$4B
_data_7433_indexed
	$F433               .byte $F4,$F4
_data_7435_indexed
	$F435               .byte $88,$A8,$E8,$21,$C8,$10,$24,$24,$24,$10,$0A,$16,$0E,$24,$24,$18
	$F445               .byte $1F,$0E,$1B,$24,$24,$24,$23,$DA,$04,$AA,$AA,$AA,$AA
_func_7452
	$F452  A2 14:       ldx #$14
_func_7454
	$F454  20 5B F4:    jsr _func_745B
	$F457  CA:          dex 
	$F458  D0 FA:       bne _func_7454
	$F45A  60:          rts 
;------------------------------------------
_func_745B
	$F45B  A9 00:       lda #$00
	$F45D  85 02:       sta $02
_func_745F
	$F45F  A5 02:       lda $02
	$F461  F0 FC:       beq _func_745F
	$F463  C6 02:       dec $02
-	$F465  60:          rts 
;------------------------------------------
_func_7466
	$F466  20 5F F4:    jsr _func_745F
	$F469  A5 3A:       lda $3A
	$F46B  D0 F8:       bne -		; $F465 -> rts
	$F46D  20 5E E7:    jsr _func_675E
	$F470  29 10:       and #$10
	$F472  F0 F1:       beq -		; $F465 -> rts
	$F474  A9 04:       lda #$04
	$F476  85 F2:       sta $F2
	$F478  A5 01:       lda $01
	$F47A  29 EF:       and #$EF
	$F47C  8D 01 20:    sta $2001
-	$F47F  20 5B F4:    jsr _func_745B
	$F482  20 5E E7:    jsr _func_675E
	$F485  29 10:       and #$10
	$F487  F0 F6:       beq -		; $F47F
	$F489  A5 01:       lda $01
	$F48B  8D 01 20:    sta $2001
	$F48E  A0 04:       ldy #$04
	$F490  A5 C8:       lda $C8
	$F492  05 16:       ora $16
	$F494  F0 02:       beq +		; $F498
	$F496  A0 20:       ldy #$20
+	$F498  84 F2:       sty $F2
	$F49A  60:          rts 
;------------------------------------------
_func_749B
	$F49B  A9 01:       lda #$01
	$F49D  8D 8E 04:    sta $048E
	$F4A0  8D 8F 04:    sta $048F
	$F4A3  A9 FF:       lda #$FF
	$F4A5  85 BB:       sta $BB
	$F4A7  85 87:       sta $87
	$F4A9  8D 8C 04:    sta $048C
	$F4AC  A2 01:       ldx #$01
	$F4AE  8E 59 04:    stx $0459
	$F4B1  86 90:       stx $90
	$F4B3  E8:          inx 
	$F4B4  86 46:       stx $46
	$F4B6  A9 40:       lda #$40
	$F4B8  85 99:       sta $99
	$F4BA  60:          rts 

	$F4BB               .byte $FF,$FF,$FF,$FF,$FF,$FF,$FF,$FF,$FF,$FF,$FF,$FF,$FF,$FF,$FF,$FF
	$F4CB               .byte $FF,$FF,$FF,$FF,$FF,$FF,$FF,$FF,$FF,$FF,$FF,$FF,$FF,$FF,$FF,$FF
	$F4DB               .byte $FF,$FF,$FF,$FF,$FF,$FF,$FF,$FF,$FF,$FF,$FF,$FF,$FF,$FF,$FF,$FF
	$F4EB               .byte $FF,$FF,$FF,$FF,$FF,$FF,$FF,$FF,$FF,$FF,$FF,$FF,$FF,$FF,$FF,$FF
	$F4FB               .byte $FF,$FF,$FF,$FF,$FF
_loc_7500
	$F500  20 8F F7:    jsr _func_778F
_loc_7503
	$F503  60:          rts 
;------------------------------------------
_loc_7504
	$F504  A9 00:       lda #$00
	$F506  AA:          tax 
	$F507  85 FD:       sta $FD
	$F509  F0 10:       beq +		; $F51B
;------------------------------------------
_loc_750B
	$F50B  8A:          txa 
	$F50C  4A:          lsr a
	$F50D  AA:          tax 
----	$F50E  E8:          inx 
	$F50F  8A:          txa 
	$F510  C9 04:       cmp #$04
	$F512  F0 EF:       beq _loc_7503		; $F503 -> rts
	$F514  A5 FD:       lda $FD
	$F516  18:          clc 
	$F517  69 04:       adc #$04
	$F519  85 FD:       sta $FD
+	$F51B  8A:          txa 
	$F51C  0A:          asl a
	$F51D  AA:          tax 
	$F51E  B5 E0:       lda $E0,x
	$F520  85 FE:       sta $FE
	$F522  B5 E1:       lda $E1,x
	$F524  85 FF:       sta $FF
	$F526  B5 E1:       lda $E1,x
	$F528  F0 E1:       beq _loc_750B
	$F52A  8A:          txa 
	$F52B  4A:          lsr a
	$F52C  AA:          tax 
	$F52D  D6 D0:       dec $D0,x
	$F52F  D0 DD:       bne ----		; $F50E
-	$F531  B4 E8:       ldy $E8,x
	$F533  F6 E8:       inc $E8,x
	$F535  B1 FE:       lda ($FE),y
	$F537  F0 C7:       beq _loc_7500
	$F539  A8:          tay 
	$F53A  C9 FF:       cmp #$FF
	$F53C  F0 09:       beq +		; $F547
	$F53E  29 C0:       and #$C0
	$F540  C9 C0:       cmp #$C0
	$F542  F0 0F:       beq ++		; $F553
	$F544  4C 61 F5:    jmp ++++		; $F561

+	$F547  B5 D8:       lda $D8,x
	$F549  F0 13:       beq +++		; $F55E -> $F531
	$F54B  D6 D8:       dec $D8,x
	$F54D  B5 EC:       lda $EC,x
	$F54F  95 E8:       sta $E8,x
	$F551  D0 0B:       bne +++		; $F55E -> $F531
++	$F553  98:          tya 
	$F554  29 3F:       and #$3F
	$F556  95 D8:       sta $D8,x
	$F558  D6 D8:       dec $D8,x
	$F55A  B5 E8:       lda $E8,x
	$F55C  95 EC:       sta $EC,x
+++	$F55E  4C 31 F5:    jmp -		; $F531

++++	$F561  98:          tya 
	$F562  10 17:       bpl +		; $F57B
	$F564  29 0F:       and #$0F
	$F566  18:          clc 
	$F567  65 DF:       adc $DF
	$F569  A8:          tay 
	$F56A  B9 60 F6:    lda _data_7660_indexed,y
	$F56D  95 D4:       sta $D4,x
	$F56F  A8:          tay 
	$F570  8A:          txa 
	$F571  C9 02:       cmp #$02
	$F573  F0 4F:       beq ++++		; $F5C4
---	$F575  B4 E8:       ldy $E8,x
	$F577  F6 E8:       inc $E8,x
	$F579  B1 FE:       lda ($FE),y
+	$F57B  A8:          tay 
	$F57C  8A:          txa 
	$F57D  C9 03:       cmp #$03
	$F57F  F0 60:       beq _loc_75E1
	$F581  48:          pha 
	$F582  AA:           tax 
	$F583  C9 01:        cmp #$01
	$F585  F0 32:        beq +++		; $F5B9
--	$F587  A6 FD:        ldx $FD
	$F589  B9 01 F6:     lda _data_7601_indexed,y
	$F58C  F0 0B:        beq +		; $F599
	$F58E  9D 02 40:     sta $4002,x
	$F591  B9 00 F6:     lda _data_7600_indexed,y
	$F594  09 08:        ora #$08
	$F596  9D 03 40:     sta $4003,x
+	$F599  A8:           tay 
	$F59A  68:          pla 
	$F59B  AA:          tax 
	$F59C  98:          tya 
	$F59D  D0 0B:       bne +		; $F5AA
	$F59F  A0 00:       ldy #$00
	$F5A1  8A:          txa 
	$F5A2  C9 02:       cmp #$02
	$F5A4  F0 06:       beq ++		; $F5AC
	$F5A6  A0 10:       ldy #$10
	$F5A8  D0 02:       bne ++		; $F5AC

+	$F5AA  B4 DC:       ldy $DC,x
++	$F5AC  98:          tya 
	$F5AD  A4 FD:       ldy $FD
	$F5AF  99 00 40:    sta $4000,y
-	$F5B2  B5 D4:       lda $D4,x
	$F5B4  95 D0:       sta $D0,x
	$F5B6  4C 0E F5:    jmp ----		; $F50E

+++	$F5B9  A5 F5:       lda $F5
	$F5BB  29 02:       and #$02
	$F5BD  F0 C8:       beq --		; $F587
	$F5BF  68:          pla 
	$F5C0  AA:          tax 
	$F5C1  4C B2 F5:    jmp -		; $F5B2

++++	$F5C4  98:          tya 
	$F5C5  AC F0 06:    ldy $06F0
	$F5C8  F0 04:       beq +		; $F5CE
	$F5CA  A9 FF:       lda #$FF
	$F5CC  D0 0B:       bne ++		; $F5D9

+	$F5CE  18:          clc 
	$F5CF  69 FE:       adc #$FE
	$F5D1  0A:          asl a
	$F5D2  0A:          asl a
	$F5D3  C9 3C:       cmp #$3C
	$F5D5  90 02:       bcc ++		; $F5D9
	$F5D7  A9 3C:       lda #$3C
++	$F5D9  8D 08 40:    sta $4008
	$F5DC  85 DE:       sta $DE
	$F5DE  4C 75 F5:    jmp ---		; $F575
;------------------------------------------
_loc_75E1
	$F5E1  A5 F4:       lda $F4
	$F5E3  C9 02:       cmp #$02
	$F5E5  F0 12:       beq +		; $F5F9 -> $F5B2
	$F5E7  B9 00 F7:    lda _data_7700_indexed,y
	$F5EA  8D 0C 40:    sta $400C
	$F5ED  B9 01 F7:    lda _DataPointerTable_7701,y
	$F5F0  8D 0E 40:    sta $400E
	$F5F3  B9 02 F7:    lda _DataPointerTable_7701+1,y
	$F5F6  8D 0F 40:    sta $400F
+	$F5F9  4C B2 F5:    jmp -		; $F5B2

	$F5FC               .byte $16,$FF,$10,$C5
_data_7600_indexed
	$F600               .byte $07
_data_7601_indexed
	$F601               .byte $F0,$00,$00,$00,$D4,$00,$C8,$00,$BD,$00,$B2,$00,$A8,$00,$9F,$00
	$F611               .byte $96,$00,$8D,$00,$85,$00,$7E,$00,$76,$00,$70,$01,$AB,$01,$93,$01
	$F621               .byte $7C,$01,$67,$01,$52,$01,$3F,$01,$2D,$01,$1C,$01,$0C,$00,$FD,$00
	$F631               .byte $EE,$00,$E1,$03,$57,$03,$27,$02,$F9,$02,$CF,$02,$A6,$02,$80,$02
	$F641               .byte $5C,$02,$3A,$02,$1A,$01,$FC,$01,$DF,$01,$C4,$03,$F8,$00,$69,$00
	$F651               .byte $63,$00,$5E,$00,$58,$00,$53,$00,$4F,$00,$4A,$00,$46,$00,$42
_data_7660_indexed
	$F660               .byte $03,$06,$0C,$18,$30,$12,$24,$09,$08,$04,$07,$01,$04,$08,$10,$20
	$F670               .byte $40,$18,$30,$0C,$01,$06,$0C,$18,$30,$60,$24,$48,$12,$10,$08,$0E
	$F680               .byte $02,$03,$04
_func_7683
	$F683  A9 00:       lda #$00
	$F685  F0 0A:       beq +		; $F691
;------------------------------------------
_func_7687
	$F687  A9 08:       lda #$08
	$F689  D0 06:       bne +		; $F691
;------------------------------------------
_func_768B
	$F68B  A9 0C:       lda #$0C
	$F68D  D0 02:       bne +		; $F691
;------------------------------------------
_func_768F
	$F68F  A9 04:       lda #$04
+	$F691  85 F9:       sta $F9
	$F693  A9 40:       lda #$40
	$F695  85 FA:       sta $FA
	$F697  86 FB:       stx $FB
	$F699  84 FC:       sty $FC
	$F69B  A0 00:       ldy #$00
-	$F69D  B1 FB:       lda ($FB),y
	$F69F  91 F9:       sta ($F9),y
	$F6A1  C8:          iny 
	$F6A2  98:          tya 
	$F6A3  C9 04:       cmp #$04
	$F6A5  D0 F6:       bne -		; $F69D
	$F6A7  60:          rts 
;------------------------------------------
_func_76A8
	$F6A8  AA:          tax 
	$F6A9  20 98 F7:    jsr _func_7798
	$F6AC  86 F6:       stx $F6
	$F6AE  AD F5 06:    lda $06F5
	$F6B1  F0 0B:       beq +		; $F6BE
	$F6B3  C9 02:       cmp #$02
	$F6B5  D0 07:       bne +		; $F6BE
	$F6B7  85 F0:       sta $F0
	$F6B9  A9 00:       lda #$00
	$F6BB  8D F5 06:    sta $06F5
+	$F6BE  B9 CA FB:    lda _data_7BCA_indexed,y
	$F6C1  A8:          tay 
	$F6C2  A2 00:       ldx #$00
-	$F6C4  B9 CA FB:    lda _data_7BCA_indexed,y
	$F6C7  95 DF:       sta $DF,x
	$F6C9  C8:          iny 
	$F6CA  E8:          inx 
	$F6CB  8A:          txa 
	$F6CC  C9 09:       cmp #$09
	$F6CE  D0 F4:       bne -		; $F6C4
	$F6D0  A9 01:       lda #$01
	$F6D2  85 D0:       sta $D0
	$F6D4  85 D1:       sta $D1
	$F6D6  85 D2:       sta $D2
	$F6D8  85 D3:       sta $D3
	$F6DA  A9 00:       lda #$00
	$F6DC  85 E8:       sta $E8
	$F6DE  85 E9:       sta $E9
	$F6E0  85 EA:       sta $EA
	$F6E2  85 EB:       sta $EB
	$F6E4  60:          rts 

	$F6E5               .byte $94,$AB,$FD,$58,$00,$7F,$04,$18,$3F,$7F,$00,$00,$06,$7F,$0A,$C0
	$F6F5               .byte $08,$7F,$05,$C0,$C1,$89,$02,$0F,$FF,$FF,$FF
_data_7700_indexed
	$F700               .byte $10
_DataPointerTable_7701
	$F701  00 18:       .word ($1800) ;1800 (0) ([8:0][A:1][C:2][E:3])
	$F703  10 01:       .word ($0110) ;110 (0) ([8:0][A:1][C:2][E:3])
	$F705  18 00:       .word ($18) ;18 (0) ([8:0][A:1][C:2][E:3])
	$F707  01 88:       .word (DataTableEntry_0801) ;8801 (801) ([8:0][A:1][C:2][E:3])
	$F709  02 02:       .word ($0202) ;202 (0) ([8:0][A:1][C:2][E:3])
	$F70B  40 03:       .word ($0340) ;340 (0) ([8:0][A:1][C:2][E:3])
	$F70D  05 40:       .word ($4005) ;4005 (0) ([8:0][A:1][C:2][E:3])
	$F70F  04 07:       .word ($0704) ;704 (0) ([8:0][A:1][C:2][E:3])
	$F711               .byte $40
_func_7712
	$F712  A9 7F:       lda #$7F
	$F714  8D 01 40:    sta $4001
	$F717  8D 05 40:    sta $4005
_func_771A
	$F71A  86 DC:       stx $DC
	$F71C  84 DD:       sty $DD
	$F71E  60:          rts 

-	$F71F  A2 E5:       ldx #$E5
	$F721  A0 F6:       ldy #$F6
	$F723  D0 20:       bne ++		; $F745
;------------------------------------------
_func_7725
	$F725  A5 F3:       lda $F3
	$F727  4A:          lsr a
	$F728  B0 0C:       bcs +		; $F736
	$F72A  A5 F7:       lda $F7
	$F72C  4A:          lsr a
	$F72D  B0 1A:       bcs +++		; $F749
	$F72F  A5 F0:       lda $F0
	$F731  29 10:       and #$10
	$F733  D0 EA:       bne -		; $F71F
	$F735  60:          rts 

+	$F736  A5 F7:       lda $F7
	$F738  09 01:       ora #$01
	$F73A  85 F7:       sta $F7
	$F73C  A9 00:       lda #$00
	$F73E  8D E4 06:    sta $06E4
	$F741  A2 FC:       ldx #$FC
	$F743  A0 F5:       ldy #$F5
++	$F745  20 83 F6:    jsr _func_7683
	$F748  60:          rts 

+++	$F749  EE E4 06:    inc $06E4
	$F74C  AD E4 06:    lda $06E4
	$F74F  C9 58:       cmp #$58
	$F751  D0 28:       bne _loc_777B		; $F77B -> rts
	$F753  A9 00:       lda #$00
	$F755  85 F7:       sta $F7
	$F757  60:          rts 
;------------------------------------------
_loc_7758
	$F758  A9 C0:       lda #$C0
	$F75A  8D 17 40:    sta $4017
	$F75D  20 25 FB:    jsr _func_7B25
	$F760  20 0A F9:    jsr _func_790A
	$F763  20 38 FA:    jsr _func_7A38
	$F766  20 AC FA:    jsr _func_7AAC
	$F769  20 24 F8:    jsr _func_7824
	$F76C  A5 F1:       lda $F1
	$F76E  8D E9 06:    sta $06E9
	$F771  A9 00:       lda #$00
	$F773  85 F0:       sta $F0
	$F775  85 F1:       sta $F1
	$F777  85 F2:       sta $F2
	$F779  85 F3:       sta $F3
_loc_777B
	$F77B  60:          rts 
;------------------------------------------
_loc_777C
	$F77C  A5 F4:       lda $F4
	$F77E  29 06:       and #$06
	$F780  D0 F9:       bne _loc_777B		; $F77B -> rts
	$F782  A5 F4:       lda $F4
	$F784  29 F0:       and #$F0
	$F786  85 F4:       sta $F4
	$F788  A2 E9:       ldx #$E9
	$F78A  A0 F6:       ldy #$F6
	$F78C  4C 79 F8:    jmp _loc_7879
;------------------------------------------
_func_778F
	$F78F  A5 F6:       lda $F6
	$F791  C9 20:       cmp #$20
	$F793  D0 0A:       bne _loc_779F
	$F795  EE E8 06:    inc $06E8
_func_7798
	$F798  29 0F:       and #$0F
	$F79A  C9 0F:       cmp #$0F
	$F79C  D0 07:       bne _func_77A5
	$F79E  8A:          txa 
_loc_779F
	$F79F  A5 F4:       lda $F4
	$F7A1  29 20:       and #$20
	$F7A3  D0 22:       bne +		; $F7C7
_func_77A5
	$F7A5  A9 10:       lda #$10
	$F7A7  8D 0C 40:    sta $400C
	$F7AA  8D 00 40:    sta $4000
	$F7AD  8D 04 40:    sta $4004
	$F7B0  A9 00:       lda #$00
	$F7B2  85 F4:       sta $F4
-	$F7B4  85 F5:       sta $F5
	$F7B6  85 F6:       sta $F6
	$F7B8  8D FA 06:    sta $06FA
	$F7BB  85 F7:       sta $F7
	$F7BD  8D 08 40:    sta $4008
	$F7C0  8D 11 40:    sta $4011
	$F7C3  8D F0 06:    sta $06F0
	$F7C6  60:          rts 

+	$F7C7  A9 10:       lda #$10
	$F7C9  8D 04 40:    sta $4004
	$F7CC  8D 0C 40:    sta $400C
	$F7CF  A9 00:       lda #$00
	$F7D1  F0 E1:       beq -		; $F7B4
;------------------------------------------
_loc_77D3
	$F7D3  A9 00:       lda #$00
	$F7D5  8D FA 06:    sta $06FA
	$F7D8  60:          rts 
;------------------------------------------
_loc_77D9
	$F7D9  A2 F5:       ldx #$F5
	$F7DB  A0 F6:       ldy #$F6
	$F7DD  4C 79 F8:    jmp _loc_7879
;------------------------------------------
_loc_77E0
	$F7E0  EE FB 06:    inc $06FB
	$F7E3  AD FB 06:    lda $06FB
	$F7E6  C9 10:       cmp #$10
	$F7E8  F0 EF:       beq _loc_77D9
	$F7EA  C9 20:       cmp #$20
	$F7EC  F0 E5:       beq _loc_77D3
	$F7EE  60:          rts 

----	$F7EF  A9 00:       lda #$00
	$F7F1  8D FB 06:    sta $06FB
	$F7F4  A9 F0:       lda #$F0
	$F7F6  8D FA 06:    sta $06FA
	$F7F9  A2 F1:       ldx #$F1
	$F7FB  A0 F6:       ldy #$F6
	$F7FD  4C 79 F8:    jmp _loc_7879

---	$F800  A5 F4:       lda $F4
	$F802  29 F0:       and #$F0
	$F804  09 02:       ora #$02
	$F806  85 F4:       sta $F4
	$F808  A9 00:       lda #$00
	$F80A  8D F7 06:    sta $06F7
	$F80D  A2 F1:       ldx #$F1
	$F80F  A0 F6:       ldy #$F6
	$F811  4C 79 F8:    jmp _loc_7879

--	$F814  EE F7 06:    inc $06F7
	$F817  AD F7 06:    lda $06F7
	$F81A  C9 10:       cmp #$10
	$F81C  D0 3D:       bne ++		; $F85B -> rts
	$F81E  4C 9B F8:    jmp _loc_789B

-	$F821  4C A5 F7:    jmp _func_77A5
;------------------------------------------
_func_7824
	$F824  A5 F0:       lda $F0
	$F826  4A:          lsr a
	$F827  B0 F8:       bcs -		; $F821 -> _func_77A5
	$F829  A5 F6:       lda $F6
	$F82B  C9 DF:       cmp #$DF
	$F82D  F0 0C:       beq +		; $F83B
	$F82F  C9 7F:       cmp #$7F
	$F831  F0 08:       beq +		; $F83B
	$F833  C9 20:       cmp #$20
	$F835  F0 04:       beq +		; $F83B
	$F837  A5 F6:       lda $F6
	$F839  D0 20:       bne ++		; $F85B -> rts
+	$F83B  AD FA 06:    lda $06FA
	$F83E  C9 0F:       cmp #$0F
	$F840  F0 AD:       beq ----		; $F7EF
	$F842  C9 F0:       cmp #$F0
	$F844  F0 9A:       beq _loc_77E0
	$F846  A5 F0:       lda $F0
	$F848  4A:          lsr a
	$F849  4A:          lsr a
	$F84A  B0 B4:       bcs ---		; $F800
	$F84C  4A:          lsr a
	$F84D  B0 10:       bcs ++++		; $F85F
	$F84F  4A:          lsr a
	$F850  B0 0A:       bcs +++		; $F85C -> _loc_777C
	$F852  A5 F4:       lda $F4
	$F854  4A:          lsr a
	$F855  4A:          lsr a
	$F856  B0 BC:       bcs --		; $F814
	$F858  4A:          lsr a
	$F859  B0 22:       bcs _loc_787D
++ -	$F85B  60:          rts 

+++	$F85C  4C 7C F7:    jmp _loc_777C

++++	$F85F  A5 F4:       lda $F4
	$F861  29 80:       and #$80
	$F863  D0 F6:       bne -		; $F85B -> rts
	$F865  A5 F4:       lda $F4
	$F867  29 F0:       and #$F0
	$F869  09 04:       ora #$04
	$F86B  85 F4:       sta $F4
	$F86D  A9 00:       lda #$00
	$F86F  8D F3 06:    sta $06F3
	$F872  8D F1 06:    sta $06F1
	$F875  A2 ED:       ldx #$ED
	$F877  A0 F6:       ldy #$F6
_loc_7879
	$F879  20 8B F6:    jsr _func_768B
	$F87C  60:          rts 
;------------------------------------------
_loc_787D
	$F87D  EE F3 06:    inc $06F3
	$F880  AD F3 06:    lda $06F3
	$F883  C9 03:       cmp #$03
	$F885  D0 1A:       bne _loc_78A1		; $F8A1 -> rts
	$F887  A9 00:       lda #$00
	$F889  8D F3 06:    sta $06F3
	$F88C  EE F1 06:    inc $06F1
	$F88F  AD F1 06:    lda $06F1
	$F892  C9 10:       cmp #$10
	$F894  D0 0C:       bne _loc_78A2
	$F896  A9 10:       lda #$10
	$F898  8D 0C 40:    sta $400C
_loc_789B
	$F89B  A5 F4:       lda $F4
	$F89D  29 F0:       and #$F0
	$F89F  85 F4:       sta $F4
_loc_78A1
	$F8A1  60:          rts 
;------------------------------------------
_loc_78A2
	$F8A2  8D 0E 40:    sta $400E
	$F8A5  60:          rts 
;------------------------------------------
_loc_78A6
	$F8A6  A9 00:       lda #$00
	$F8A8  8D E0 06:    sta $06E0
	$F8AB  18:          clc 
	$F8AC  A5 1B:       lda $1B
	$F8AE  29 07:       and #$07
	$F8B0  69 02:       adc #$02
	$F8B2  8D E1 06:    sta $06E1
	$F8B5  A5 F7:       lda $F7
	$F8B7  29 00:       and #$00
	$F8B9  09 80:       ora #$80
	$F8BB  85 F7:       sta $F7
	$F8BD  D0 29:       bne +		; $F8E8
_loc_78BF
	$F8BF  EE E0 06:    inc $06E0
	$F8C2  AD E0 06:    lda $06E0
	$F8C5  CD E1 06:    cmp $06E1
	$F8C8  D0 1E:       bne +		; $F8E8
----	$F8CA  A9 10:       lda #$10
	$F8CC  8D 00 40:    sta $4000
	$F8CF  8D 04 40:    sta $4004
	$F8D2  A9 00:       lda #$00
	$F8D4  85 F7:       sta $F7
	$F8D6  A5 F4:       lda $F4
	$F8D8  29 0F:       and #$0F
	$F8DA  85 F4:       sta $F4
	$F8DC  60:          rts 

---	$F8DD  20 A5 F7:    jsr _func_77A5
	$F8E0  A9 80:       lda #$80
	$F8E2  85 F4:       sta $F4
	$F8E4  A9 02:       lda #$02
	$F8E6  85 F0:       sta $F0
+ --	$F8E8  A2 F9:       ldx #$F9
	$F8EA  A0 F6:       ldy #$F6
	$F8EC  20 83 F6:    jsr _func_7683
	$F8EF  A5 1B:       lda $1B
	$F8F1  29 0F:       and #$0F
	$F8F3  8D 02 40:    sta $4002
	$F8F6  A2 F9:       ldx #$F9
	$F8F8  A0 F6:       ldy #$F6
	$F8FA  20 8F F6:    jsr _func_768F
	$F8FD  A5 1B:       lda $1B
	$F8FF  4A:          lsr a
	$F900  4A:          lsr a
	$F901  29 0F:       and #$0F
	$F903  8D 06 40:    sta $4006
	$F906  60:          rts 

-	$F907  4C A6 F8:    jmp _loc_78A6
;------------------------------------------
_func_790A
	$F90A  A5 F6:       lda $F6
	$F90C  F0 0D:       beq +		; $F91B
	$F90E  C9 DF:       cmp #$DF
	$F910  F0 09:       beq +		; $F91B
	$F912  A5 F0:       lda $F0
	$F914  29 E0:       and #$E0
	$F916  F0 36:       beq ++		; $F94E -> rts
	$F918  20 A5 F7:    jsr _func_77A5
+	$F91B  A5 F0:       lda $F0
	$F91D  0A:          asl a
	$F91E  B0 BD:       bcs ---		; $F8DD
	$F920  0A:          asl a
	$F921  B0 2F:       bcs ++++		; $F952
	$F923  0A:          asl a
	$F924  B0 3F:       bcs _loc_7965
	$F926  A5 F4:       lda $F4
	$F928  0A:          asl a
	$F929  B0 BD:       bcs --		; $F8E8
	$F92B  A5 F4:       lda $F4
	$F92D  29 E0:       and #$E0
	$F92F  D0 1D:       bne ++		; $F94E -> rts
	$F931  A5 F6:       lda $F6
	$F933  C9 DF:       cmp #$DF
	$F935  F0 14:       beq +		; $F94B
	$F937  A5 F6:       lda $F6
	$F939  D0 13:       bne ++		; $F94E -> rts
	$F93B  A5 F3:       lda $F3
	$F93D  0A:          asl a
	$F93E  B0 C7:       bcs -		; $F907 -> _loc_78A6
	$F940  0A:          asl a
	$F941  B0 34:       bcs _loc_7977
	$F943  A5 F7:       lda $F7
	$F945  0A:          asl a
	$F946  B0 07:       bcs +++		; $F94F -> _loc_78BF
	$F948  0A:          asl a
	$F949  B0 48:       bcs _loc_7993
+	$F94B  20 25 F7:    jsr _func_7725
++	$F94E  60:          rts 

+++	$F94F  4C BF F8:    jmp _loc_78BF

++++	$F952  A9 0F:       lda #$0F
	$F954  8D FA 06:    sta $06FA
	$F957  A5 F4:       lda $F4
	$F959  29 0F:       and #$0F
	$F95B  09 40:       ora #$40
	$F95D  85 F4:       sta $F4
	$F95F  A2 D1:       ldx #$D1
	$F961  A0 F9:       ldy #$F9
	$F963  D0 2A:       bne _loc_798F
;------------------------------------------
_loc_7965
	$F965  A9 02:       lda #$02
	$F967  85 F0:       sta $F0
	$F969  A5 F4:       lda $F4
	$F96B  29 0F:       and #$0F
	$F96D  09 20:       ora #$20
	$F96F  85 F4:       sta $F4
	$F971  A2 CD:       ldx #$CD
	$F973  A0 F9:       ldy #$F9
	$F975  D0 18:       bne _loc_798F
;------------------------------------------
_loc_7977
	$F977  A9 00:       lda #$00
	$F979  8D FC 06:    sta $06FC
	$F97C  A5 F7:       lda $F7
	$F97E  29 00:       and #$00
	$F980  09 40:       ora #$40
	$F982  85 F7:       sta $F7
	$F984  A2 D5:       ldx #$D5
	$F986  A0 F9:       ldy #$F9
	$F988  20 8F F6:    jsr _func_768F
	$F98B  A2 D9:       ldx #$D9
	$F98D  A0 F9:       ldy #$F9
_loc_798F
	$F98F  20 83 F6:    jsr _func_7683
	$F992  60:          rts 
;------------------------------------------
_loc_7993
	$F993  EE FC 06:    inc $06FC
	$F996  AD FC 06:    lda $06FC
	$F999  C9 12:       cmp #$12
	$F99B  F0 2D:       beq +++		; $F9CA -> $F8CA
	$F99D  C9 06:       cmp #$06
	$F99F  90 10:       bcc +		; $F9B1
	$F9A1  A5 1B:       lda $1B
	$F9A3  09 10:       ora #$10
	$F9A5  29 7F:       and #$7F
	$F9A7  8D FE 06:    sta $06FE
	$F9AA  2A:          rol a
	$F9AB  8D FD 06:    sta $06FD
	$F9AE  4C BD F9:    jmp ++		; $F9BD

+	$F9B1  EE FD 06:    inc $06FD
	$F9B4  EE FD 06:    inc $06FD
	$F9B7  EE FE 06:    inc $06FE
	$F9BA  EE FE 06:    inc $06FE
++	$F9BD  AD FD 06:    lda $06FD
	$F9C0  8D 06 40:    sta $4006
	$F9C3  AD FE 06:    lda $06FE
	$F9C6  8D 02 40:    sta $4002
	$F9C9  60:          rts 

+++	$F9CA  4C CA F8:    jmp ----		; $F8CA

	$F9CD               .byte $B8,$D5,$20,$00,$9F,$93,$80,$22,$3F,$BA,$E0,$06,$3F,$BB,$CE,$06
	$F9DD               .byte $B8,$93,$50,$02,$80,$7F,$60,$68,$80,$7F,$62,$68
---	$F9E9  A5 F5:       lda $F5
	$F9EB  29 02:       and #$02
	$F9ED  D0 37:       bne ++		; $FA26 -> rts
	$F9EF  A5 F6:       lda $F6
	$F9F1  C9 DF:       cmp #$DF
	$F9F3  F0 04:       beq +		; $F9F9
	$F9F5  A5 F6:       lda $F6
	$F9F7  D0 2D:       bne ++		; $FA26 -> rts
+	$F9F9  A9 00:       lda #$00
	$F9FB  8D F9 06:    sta $06F9
	$F9FE  A5 F5:       lda $F5
	$FA00  29 E0:       and #$E0
	$FA02  09 02:       ora #$02
	$FA04  85 F5:       sta $F5
	$FA06  A2 DD:       ldx #$DD
	$FA08  A0 F9:       ldy #$F9
	$FA0A  D0 73:       bne ++++		; $FA7F

--	$FA0C  EE F9 06:    inc $06F9
	$FA0F  AD F9 06:    lda $06F9
	$FA12  C9 07:       cmp #$07
	$FA14  D0 10:       bne ++		; $FA26 -> rts
	$FA16  A9 7F:       lda #$7F
	$FA18  8D 05 40:    sta $4005
	$FA1B  A9 10:       lda #$10
	$FA1D  8D 04 40:    sta $4004
	$FA20  A5 F5:       lda $F5
	$FA22  29 E0:       and #$E0
	$FA24  85 F5:       sta $F5
++	$FA26  60:          rts 

-	$FA27  20 A5 F7:    jsr _func_77A5
	$FA2A  A2 E1:       ldx #$E1
	$FA2C  A0 F9:       ldy #$F9
	$FA2E  20 83 F6:    jsr _func_7683
	$FA31  A2 E5:       ldx #$E5
	$FA33  A0 F9:       ldy #$F9
	$FA35  4C 7F FA:    jmp ++++		; $FA7F
;------------------------------------------
_func_7A38
	$FA38  A5 F6:       lda $F6
	$FA3A  F0 06:       beq +		; $FA42
	$FA3C  29 0F:       and #$0F
	$FA3E  C9 0F:       cmp #$0F
	$FA40  D0 21:       bne ++		; $FA63 -> rts
+	$FA42  A5 F4:       lda $F4
	$FA44  29 80:       and #$80
	$FA46  D0 1B:       bne ++		; $FA63 -> rts
	$FA48  A5 F7:       lda $F7
	$FA4A  29 C0:       and #$C0
	$FA4C  D0 15:       bne ++		; $FA63 -> rts
	$FA4E  A5 F1:       lda $F1
	$FA50  4A:          lsr a
	$FA51  B0 D4:       bcs -		; $FA27
	$FA53  4A:          lsr a
	$FA54  B0 93:       bcs ---		; $F9E9
	$FA56  4A:          lsr a
	$FA57  B0 2A:       bcs _loc_7A83
	$FA59  4A:          lsr a
	$FA5A  4A:          lsr a
	$FA5B  B0 07:       bcs +++		; $FA64
	$FA5D  A5 F5:       lda $F5
	$FA5F  4A:          lsr a
	$FA60  4A:          lsr a
	$FA61  B0 A9:       bcs --		; $FA0C
++ -	$FA63  60:          rts 

+++	$FA64  A5 F6:       lda $F6
	$FA66  D0 FB:       bne -		; $FA63 -> rts
	$FA68  A5 F5:       lda $F5
	$FA6A  29 02:       and #$02
	$FA6C  D0 F5:       bne -		; $FA63 -> rts
	$FA6E  A2 8A:       ldx #$8A
	$FA70  A0 FA:       ldy #$FA
	$FA72  20 8F F6:    jsr _func_768F
	$FA75  A5 1B:       lda $1B
	$FA77  29 3F:       and #$3F
	$FA79  09 10:       ora #$10
	$FA7B  8D 06 40:    sta $4006
	$FA7E  60:          rts 

++++	$FA7F  20 8F F6:    jsr _func_768F
	$FA82  60:          rts 
;------------------------------------------
_loc_7A83
	$FA83  A0 0A:       ldy #$0A
	$FA85  A9 EF:       lda #$EF
	$FA87  4C A5 FB:    jmp _loc_7BA5

	$FA8A               .byte $D9,$86,$A8,$48,$08,$7F,$40,$28,$08,$7F,$45,$28
-	$FA96  EE F6 06:    inc $06F6
	$FA99  AD F6 06:    lda $06F6
	$FA9C  C9 04:       cmp #$04
	$FA9E  D0 38:       bne ++		; $FAD8 -> rts
	$FAA0  A5 F5:       lda $F5
	$FAA2  29 1F:       and #$1F
	$FAA4  85 F5:       sta $F5
	$FAA6  A2 92:       ldx #$92
	$FAA8  A0 FA:       ldy #$FA
	$FAAA  D0 54:       bne _loc_7B00
;------------------------------------------
_func_7AAC
	$FAAC  A5 F6:       lda $F6
	$FAAE  F0 0A:       beq +		; $FABA
	$FAB0  C9 08:       cmp #$08
	$FAB2  F0 06:       beq +		; $FABA
	$FAB4  29 0F:       and #$0F
	$FAB6  C9 0F:       cmp #$0F
	$FAB8  D0 1E:       bne ++		; $FAD8 -> rts
+	$FABA  A5 F4:       lda $F4
	$FABC  29 80:       and #$80
	$FABE  D0 18:       bne ++		; $FAD8 -> rts
	$FAC0  A5 F1:       lda $F1
	$FAC2  0A:          asl a
	$FAC3  B0 52:       bcs _loc_7B17
	$FAC5  0A:          asl a
	$FAC6  B0 1A:       bcs ++++		; $FAE2
	$FAC8  A5 F5:       lda $F5
	$FACA  0A:          asl a
	$FACB  0A:          asl a
	$FACC  B0 C8:       bcs -		; $FA96
	$FACE  A5 F1:       lda $F1
	$FAD0  29 20:       and #$20
	$FAD2  F0 05:       beq +++		; $FAD9
	$FAD4  A5 F6:       lda $F6
	$FAD6  F0 2C:       beq _loc_7B04
++ -	$FAD8  60:          rts 

+++	$FAD9  A5 F6:       lda $F6
	$FADB  C9 DF:       cmp #$DF
	$FADD  D0 F9:       bne -		; $FAD8 -> rts
	$FADF  4C 9F F7:    jmp _loc_779F

++++	$FAE2  A5 F5:       lda $F5
	$FAE4  29 1F:       and #$1F
	$FAE6  09 40:       ora #$40
	$FAE8  85 F5:       sta $F5
	$FAEA  A9 00:       lda #$00
	$FAEC  8D 08 40:    sta $4008
	$FAEF  85 F6:       sta $F6
	$FAF1  8D F6 06:    sta $06F6
	$FAF4  A9 10:       lda #$10
	$FAF6  8D 04 40:    sta $4004
	$FAF9  8D 0C 40:    sta $400C
	$FAFC  A2 8E:       ldx #$8E
	$FAFE  A0 FA:       ldy #$FA
_loc_7B00
	$FB00  20 87 F6:    jsr _func_7687
	$FB03  60:          rts 
;------------------------------------------
_loc_7B04
	$FB04  AD E9 06:    lda $06E9
	$FB07  29 20:       and #$20
	$FB09  D0 05:       bne +		; $FB10
	$FB0B  A9 02:       lda #$02
	$FB0D  8D F5 06:    sta $06F5
+	$FB10  A0 08:       ldy #$08
	$FB12  A9 DF:       lda #$DF
	$FB14  4C A5 FB:    jmp _loc_7BA5
;------------------------------------------
_loc_7B17
	$FB17  A0 04:       ldy #$04
	$FB19  A9 7F:       lda #$7F
	$FB1B  4C A5 FB:    jmp _loc_7BA5

-	$FB1E  A0 00:       ldy #$00
	$FB20  A9 02:       lda #$02
	$FB22  4C C1 FB:    jmp _loc_7BC1
;------------------------------------------
_func_7B25
	$FB25  AD E8 06:    lda $06E8
	$FB28  D0 34:       bne _loc_7B5E
	$FB2A  A5 F2:       lda $F2
	$FB2C  4A:          lsr a
	$FB2D  B0 53:       bcs _loc_7B82
	$FB2F  4A:          lsr a
	$FB30  B0 EC:       bcs -		; $FB1E
	$FB32  4A:          lsr a
	$FB33  B0 17:       bcs ++		; $FB4C
	$FB35  4A:          lsr a
	$FB36  B0 44:       bcs _loc_7B7C
	$FB38  4A:          lsr a
	$FB39  B0 2E:       bcs _loc_7B69
	$FB3B  4A:          lsr a
	$FB3C  B0 20:       bcs _loc_7B5E
	$FB3E  4A:          lsr a
	$FB3F  B0 17:       bcs ++++		; $FB58
	$FB41  4A:          lsr a
	$FB42  B0 0E:       bcs +++		; $FB52
	$FB44  A5 F6:       lda $F6
	$FB46  D0 01:       bne +		; $FB49 -> _loc_7504
	$FB48  60:          rts 

+ --	$FB49  4C 04 F5:    jmp _loc_7504

++	$FB4C  A0 02:       ldy #$02
	$FB4E  A9 04:       lda #$04
	$FB50  D0 53:       bne _loc_7BA5

+++	$FB52  A0 09:       ldy #$09
	$FB54  A9 80:       lda #$80
	$FB56  D0 15:       bne _loc_7B6D

++++	$FB58  A0 07:       ldy #$07
	$FB5A  A9 40:       lda #$40
	$FB5C  D0 0F:       bne _loc_7B6D
;------------------------------------------
_loc_7B5E
	$FB5E  A9 00:       lda #$00
	$FB60  8D E8 06:    sta $06E8
	$FB63  A0 06:       ldy #$06
	$FB65  A9 20:       lda #$20
	$FB67  D0 58:       bne _loc_7BC1
;------------------------------------------
_loc_7B69
	$FB69  A0 05:       ldy #$05
	$FB6B  A9 10:       lda #$10
_loc_7B6D
	$FB6D  20 A8 F6:    jsr _func_76A8
	$FB70  A2 FC:       ldx #$FC
	$FB72  A0 FC:       ldy #$FC
	$FB74  20 12 F7:    jsr _func_7712
	$FB77  EE F0 06:    inc $06F0
	$FB7A  D0 CD:       bne --		; $FB49 -> _loc_7504
_loc_7B7C
	$FB7C  A0 03:       ldy #$03
	$FB7E  A9 08:       lda #$08
	$FB80  D0 04:       bne _loc_7B86
;------------------------------------------
_loc_7B82
	$FB82  A0 01:       ldy #$01
	$FB84  A9 01:       lda #$01
_loc_7B86
	$FB86  20 A8 F6:    jsr _func_76A8
	$FB89  A2 80:       ldx #$80
	$FB8B  A0 80:       ldy #$80
-	$FB8D  20 1A F7:    jsr _func_771A
	$FB90  A9 83:       lda #$83
	$FB92  8D 01 40:    sta $4001
	$FB95  A9 7F:       lda #$7F
	$FB97  8D 05 40:    sta $4005
	$FB9A  D0 13:       bne _loc_7BAF

	$FB9C               .byte $20,$A8,$F6,$A2,$04,$A0,$04,$D0,$07
_loc_7BA5
	$FBA5  20 A8 F6:    jsr _func_76A8
	$FBA8  A2 80:       ldx #$80
	$FBAA  A0 80:       ldy #$80
	$FBAC  20 12 F7:    jsr _func_7712
_loc_7BAF
	$FBAF  A9 00:       lda #$00
	$FBB1  8D F0 06:    sta $06F0
	$FBB4  A5 F4:       lda $F4
	$FBB6  29 20:       and #$20
	$FBB8  F0 8F:       beq --		; $FB49 -> _loc_7504
	$FBBA  A9 D5:       lda #$D5
	$FBBC  8D 01 40:    sta $4001
	$FBBF  D0 88:       bne --		; $FB49 -> _loc_7504
;------------------------------------------
_loc_7BC1
	$FBC1  20 A8 F6:    jsr _func_76A8
	$FBC4  A2 80:       ldx #$80
	$FBC6  A0 BA:       ldy #$BA
	$FBC8  D0 C3:       bne -		; $FB8D
;------------------------------------------
_data_7BCA_indexed
	$FBCA               .byte $0B,$14,$1D,$26,$2F,$38,$41,$4A,$53,$5C,$65,$0C,$02,$FF,$0B,$FF
	$FBDA               .byte $1E,$FF,$31,$FF,$15,$18,$FE,$2A,$FE,$65,$FE,$86,$FE,$0C,$0D,$FE
	$FBEA               .byte $00,$00,$13,$FE,$00,$00,$15,$38,$FF,$5A,$FF,$79,$FF,$94,$FF,$00
	$FBFA               .byte $00,$00,$D7,$FE,$ED,$FE,$00,$00,$00,$B3,$FF,$C9,$FF,$DA,$FF,$EF
	$FC0A               .byte $FF,$15,$A5,$FC,$0A,$FD,$98,$FD,$E0,$FD,$15,$B2,$FE,$00,$00,$C5
	$FC1A               .byte $FE,$00,$00,$15,$00,$00,$92,$FE,$A1,$FE,$00,$00,$0C,$59,$FC,$72
	$FC2A               .byte $FC,$8C,$FC,$00,$00,$00,$00,$00,$38,$FC,$49,$FC,$00,$00,$82,$02
	$FC3A               .byte $8B,$02,$80,$08,$02,$10,$02,$16,$02,$52,$02,$02,$02,$1A,$00,$82
	$FC4A               .byte $02,$80,$10,$02,$16,$02,$52,$02,$5A,$02,$02,$02,$56,$81,$02,$80
	$FC5A               .byte $12,$02,$0C,$02,$04,$02,$0C,$02,$04,$02,$2A,$02,$81,$04,$02,$80
	$FC6A               .byte $04,$02,$81,$04,$88,$02,$02,$00,$88,$02,$02,$80,$04,$02,$2A,$02
	$FC7A               .byte $24,$02,$2A,$02,$24,$02,$1C,$02,$81,$22,$02,$80,$22,$02,$81,$24
	$FC8A               .byte $88,$02,$88,$02,$80,$56,$02,$4E,$02,$12,$02,$4E,$02,$12,$02,$0C
	$FC9A               .byte $02,$81,$10,$02,$80,$10,$02,$81,$12,$88,$02,$C3,$81,$02,$02,$1C
	$FCAA               .byte $02,$02,$02,$1C,$1C,$FF,$C6,$88,$1C,$FF,$C7,$82,$4C,$4C,$2A,$4C
	$FCBA               .byte $FF,$C6,$88,$1C,$FF,$C4,$81,$46,$02,$46,$02,$32,$02,$46,$80,$2E
	$FCCA               .byte $2E,$FF,$C3,$82,$46,$46,$81,$32,$32,$46,$2E,$FF,$80,$0C,$0C,$81
	$FCDA               .byte $46,$46,$46,$80,$04,$04,$81,$46,$46,$02,$C8,$82,$4C,$4C,$2A,$4C
	$FCEA               .byte $FF,$C2,$81,$46,$80,$32,$32,$82,$46,$04,$81,$46,$2A,$FF,$C2,$81
	$FCFA               .byte $0C,$0C,$80,$04,$04,$81,$04,$80,$2E,$2E,$81,$2E,$82,$24,$FF,$00
	$FD0A               .byte $81,$32,$02,$02,$06,$0C,$32,$02,$02,$8A,$2E,$8B,$02,$8A,$2E,$8B
	$FD1A               .byte $02,$8A,$2E,$8B,$02,$88,$2E,$32,$2E,$D0,$8C,$2C,$24,$FF,$D0,$2E
	$FD2A               .byte $20,$FF,$C3,$80,$28,$02,$82,$02,$80,$2C,$02,$32,$02,$24,$02,$82
	$FD3A               .byte $02,$81,$02,$80,$28,$02,$06,$02,$28,$02,$81,$02,$80,$24,$02,$32
	$FD4A               .byte $02,$24,$02,$FF,$80,$28,$02,$82,$02,$80,$2C,$02,$32,$02,$24,$02
	$FD5A               .byte $82,$02,$89,$0C,$0A,$08,$06,$32,$30,$2E,$2C,$2A,$28,$26,$24,$02
	$FD6A               .byte $02,$02,$86,$02,$C7,$84,$02,$FF,$C4,$80,$28,$02,$82,$02,$80,$2C
	$FD7A               .byte $02,$32,$02,$24,$02,$82,$02,$81,$02,$80,$28,$02,$06,$02,$28,$02
	$FD8A               .byte $81,$02,$80,$24,$02,$32,$02,$24,$02,$FF,$C8,$84,$02,$FF,$81,$14
	$FD9A               .byte $02,$02,$14,$1A,$14,$02,$02,$88,$10,$10,$10,$10,$14,$10,$85,$3C
	$FDAA               .byte $81,$44,$85,$4A,$81,$44,$88,$28,$24,$20,$46,$42,$40,$C6,$81,$3C
	$FDBA               .byte $02,$02,$44,$02,$02,$02,$4A,$02,$46,$36,$36,$38,$38,$02,$3A,$02
	$FDCA               .byte $80,$3C,$3C,$81,$02,$24,$02,$02,$2C,$24,$88,$24,$1E,$46,$36,$38
	$FDDA               .byte $3A,$FF,$C4,$84,$02,$FF,$D8,$81,$06,$FF,$C6,$88,$06,$FF,$C7,$81
	$FDEA               .byte $06,$06,$80,$06,$06,$81,$06,$06,$80,$06,$06,$81,$06,$06,$FF,$C6
	$FDFA               .byte $88,$06,$FF,$E0,$81,$06,$06,$FF,$82,$0F,$81,$06,$06,$EA,$06,$06
	$FE0A               .byte $06,$06,$FF,$C5,$80,$0E,$58,$FF,$00,$C5,$80,$0E,$58,$FF,$82,$1C
	$FE1A               .byte $1C,$C3,$82,$1C,$1C,$81,$1C,$1C,$1C,$02,$FF,$C7,$88,$1C,$FF,$00
	$FE2A               .byte $83,$02,$80,$0E,$02,$0E,$02,$0C,$02,$0E,$02,$4E,$02,$02,$02,$0E
	$FE3A               .byte $02,$0C,$02,$02,$02,$0E,$02,$0C,$02,$0E,$02,$4E,$02,$02,$02,$0E
	$FE4A               .byte $02,$0C,$02,$0E,$02,$0E,$02,$0C,$02,$0E,$02,$4E,$02,$02,$02,$0E
	$FE5A               .byte $02,$0C,$02,$88,$4E,$18,$16,$12,$0E,$0C,$0E,$83,$02,$81,$3E,$3E
	$FE6A               .byte $82,$46,$1C,$46,$81,$02,$38,$3E,$02,$82,$46,$1C,$82,$48,$48,$81
	$FE7A               .byte $3E,$3E,$82,$38,$88,$24,$20,$1C,$48,$46,$42,$3E,$82,$09,$09,$C6
	$FE8A               .byte $82,$03,$0C,$FF,$C6,$88,$06,$FF,$ED,$89,$2A,$02,$04,$0C,$02,$04
	$FE9A               .byte $08,$02,$30,$26,$02,$30,$FF,$80,$02,$ED,$89,$0C,$02,$12,$4E,$02
	$FEAA               .byte $12,$18,$02,$0E,$08,$02,$0E,$FF,$80,$42,$02,$48,$02,$1E,$02,$24
	$FEBA               .byte $02,$02,$02,$2A,$02,$C6,$8C,$30,$2A,$FF,$00,$80,$24,$02,$2A,$02
	$FECA               .byte $30,$02,$06,$02,$02,$02,$0C,$02,$C6,$8C,$12,$18,$FF,$80,$56,$54
	$FEDA               .byte $52,$50,$81,$02,$80,$5E,$5A,$54,$50,$18,$14,$10,$0A,$06,$30,$2C
	$FEEA               .byte $28,$02,$00,$80,$1A,$18,$16,$14,$81,$02,$80,$02,$5E,$5A,$54,$50
	$FEFA               .byte $18,$14,$10,$0A,$06,$30,$2C,$28,$82,$1C,$02,$1C,$02,$02,$1C,$1C
	$FF0A               .byte $00,$81,$10,$0A,$32,$28,$80,$32,$02,$32,$02,$82,$32,$81,$06,$02
	$FF1A               .byte $06,$02,$82,$32,$81,$54,$1A,$10,$0A,$80,$10,$02,$10,$02,$82,$10
	$FF2A               .byte $81,$16,$02,$16,$02,$82,$0A,$83,$03,$0C,$82,$03,$0C,$0C,$C2,$88
	$FF3A               .byte $1C,$1C,$1C,$1C,$1C,$1C,$83,$1C,$80,$04,$04,$2A,$02,$82,$1C,$FF
	$FF4A               .byte $81,$4C,$02,$4C,$02,$2A,$02,$4C,$1C,$81,$4C,$02,$4C,$02,$4C,$00
	$FF5A               .byte $88,$2E,$2E,$2E,$30,$04,$30,$C4,$80,$2E,$04,$FF,$83,$02,$88,$2E
	$FF6A               .byte $2E,$2E,$30,$04,$30,$C4,$80,$2E,$04,$FF,$83,$02,$84,$02,$02,$C2
	$FF7A               .byte $88,$3E,$3E,$3E,$42,$46,$42,$84,$3E,$FF,$85,$3E,$81,$3E,$88,$1C
	$FF8A               .byte $46,$1C,$81,$02,$3E,$3E,$3E,$82,$34,$02,$C2,$88,$06,$06,$06,$06
	$FF9A               .byte $06,$06,$82,$06,$06,$06,$06,$FF,$C2,$81,$06,$06,$80,$06,$06,$81
	$FFAA               .byte $06,$06,$06,$06,$80,$06,$06,$FF,$09,$80,$10,$02,$10,$02,$10,$02
	$FFBA               .byte $0C,$0C,$0C,$02,$0C,$02,$14,$14,$14,$02,$14,$02,$85,$10,$00,$80
	$FFCA               .byte $32,$02,$32,$02,$32,$02,$C2,$32,$32,$32,$02,$32,$02,$FF,$85,$32
	$FFDA               .byte $80,$54,$02,$54,$02,$54,$02,$50,$50,$50,$02,$50,$02,$56,$56,$56
	$FFEA               .byte $02,$56,$02,$85,$54,$C4,$85,$0C,$FF,$FF,$FF,$FF,$FF
_func_7FF7
	$FFF7  4C 58 F7:    jmp _loc_7758

	$FFFA               .byte $8A,$C0,$00,$C0,$ED,$C0
